(dp0
S'rasamalai'
p1
I5377
sS'raining'
p2
I3456
sS'yellow'
p3
I6807
sS'four'
p4
I412
sS'prices'
p5
I3642
sS'hanging'
p6
I1011
sS'gabriella'
p7
I4610
sS'looking'
p8
I420
sS'lord'
p9
I2162
sS'flicking'
p10
I2258
sS'deli'
p11
I4838
sS'dell'
p12
I902
sS'comfterbale'
p13
I2756
sS'hdtv'
p14
I3202
sS'figs'
p15
I6588
sS'bringing'
p16
I5110
sS'basics'
p17
I3225
sS'internally'
p18
I1931
sS'prize'
p19
I5964
sS'wooden'
p20
I4262
sS'clientele'
p21
I6578
sS'satchel'
p22
I3690
sS'straight'
p23
I2512
sS'fritter'
p24
I7011
sS'specially'
p25
I2006
sS'tired'
p26
I1043
sS'refleshment'
p27
I4574
sS'bacon'
p28
I4236
sS'elegant'
p29
I646
sS'second'
p30
I535
sS'admire'
p31
I6132
sS'errors'
p32
I3686
sS'cooking'
p33
I4751
sS'fingers'
p34
I2767
sS'resilient'
p35
I2039
sS'recommand'
p36
I5904
sS'<END>'
p37
I2
sS'herb'
p38
I5433
sS'here'
p39
I312
sS'reported'
p40
I4181
sS'china'
p41
I7039
sS'dorm'
p42
I3990
sS'-they'
p43
I530
sS"i'v"
p44
I2769
sS'kids'
p45
I1268
sS"entre'es"
p46
I6646
sS'unfriendly'
p47
I6329
sS'reports'
p48
I3537
sS'advantages'
p49
I1651
sS'spotty'
p50
I5686
sS'pairings'
p51
I5820
sS'golden'
p52
I7029
sS'explained'
p53
I2750
sS'replace'
p54
I404
sS'brought'
p55
I1172
sS'unit'
p56
I822
sS'spoke'
p57
I2295
sS'browse'
p58
I2100
sS'moth'
p59
I3664
sS'symphony'
p60
I5632
sS'music'
p61
I616
sS'therefore'
p62
I1244
sS'strike'
p63
I6114
sS'pelligrino'
p64
I6832
sS'until'
p65
I220
sS'massamman'
p66
I6020
sS'paperwork'
p67
I3534
sS'holy'
p68
I6551
sS'relax'
p69
I2485
sS'brings'
p70
I6346
sS'yahoo'
p71
I829
sS'hurt'
p72
I3272
sS'99'
p73
I3644
sS'glass'
p74
I707
sS'90'
p75
I2432
sS'hole'
p76
I4515
sS'hold'
p77
I995
sS'locked'
p78
I867
sS'blade'
p79
I3078
sS'temperatures'
p80
I816
sS'stauff'
p81
I6184
sS'example'
p82
I1589
sS'foodie'
p83
I5370
sS'triple'
p84
I6772
sS'wand'
p85
I4998
sS'pints'
p86
I6737
sS'household'
p87
I3991
sS'organized'
p88
I2513
sS'reviewing'
p89
I6998
sS'want'
p90
I864
sS'absolute'
p91
I2425
sS'complaining'
p92
I3694
sS'travel'
p93
I457
sS'feature'
p94
I1166
sS'machine'
p95
I367
sS'how'
p96
I299
sS'hot'
p97
I887
sS'hop'
p98
I6582
sS'yum'
p99
I6906
sS'gaming'
p100
I239
sS'beauty'
p101
I4147
sS'funny'
p102
I3492
sS'typed'
p103
I760
sS'wrong'
p104
I599
sS'types'
p105
I4667
sS'parmigana'
p106
I6981
sS'effective'
p107
I2590
sS'wins'
p108
I5710
sS'attracts'
p109
I4852
sS'headquarters'
p110
I607
sS'specks'
p111
I3371
sS'keeps'
p112
I1459
sS'wind'
p113
I6320
sS'wine'
p114
I4292
sS'selecion'
p115
I5662
sS'welcomed'
p116
I3647
sS'dog*.'
p117
I3914
sS'vary'
p118
I4183
sS'welcomes'
p119
I4776
sS'fit'
p120
I2632
sS'fix'
p121
I138
sS'receipies'
p122
I6089
sS'hidden'
p123
I6670
sS'fin'
p124
I6810
sS'easier'
p125
I635
sS'workhorse'
p126
I2952
sS'net"book'
p127
I4091
sS'effects'
p128
I5400
sS'velcro'
p129
I3014
sS'schools'
p130
I3107
sS'braised'
p131
I6415
sS'sixteen'
p132
I558
sS'silver'
p133
I3017
sS'noticable'
p134
I3877
sS'addicted'
p135
I3383
sS'whim'
p136
I2585
sS'woes'
p137
I1657
sS'series'
p138
I721
sS'spider'
p139
I4437
sS'wednesday'
p140
I5410
sS'turnip'
p141
I5139
sS'substantially'
p142
I6754
sS'apetizers'
p143
I5487
sS'message'
p144
I1803
sS'whip'
p145
I4198
sS'freeze'
p146
I314
sS're'
p147
I2366
sS'encourage'
p148
I2116
sS'adapt'
p149
I3677
sS'meantioned'
p150
I2068
sS'surveys'
p151
I3575
sS'grapes'
p152
I4934
sS'enormous'
p153
I877
sS'ate'
p154
I4682
sS'scruff'
p155
I4221
sS'takeout'
p156
I4678
sS'shipped'
p157
I784
sS'musicians'
p158
I3615
sS'speedy'
p159
I2803
sS'cucumber'
p160
I6641
sS'resetting'
p161
I3357
sS'speeds'
p162
I3945
sS'wasy'
p163
I2220
sS'brickwork'
p164
I6730
sS'shopped'
p165
I349
sS'wash'
p166
I5332
sS'spinning'
p167
I2454
sS'176'
p168
I3140
sS'175'
p169
I1436
sS'clarity'
p170
I3049
sS'service'
p171
I42
sS'similarly'
p172
I1554
sS'reuben'
p173
I6876
sS'needed'
p174
I1442
sS'newegg'
p175
I1852
sS'listed'
p176
I3197
sS'blossoms'
p177
I6072
sS'legs'
p178
I3621
sS'bitter'
p179
I5289
sS'ranging'
p180
I4476
sS'listen'
p181
I1637
sS'snooty'
p182
I5557
sS'crawl'
p183
I4090
sS'picky'
p184
I4773
sS'showed'
p185
I6647
sS'bacos'
p186
I5442
sS'idle'
p187
I4036
sS'exclaimed'
p188
I5194
sS'aftereffects'
p189
I2564
sS'feeling'
p190
I4162
sS'reurn'
p191
I2434
sS'spectrum'
p192
I2826
sS'runned'
p193
I4798
sS'dozen'
p194
I6696
sS'tikka'
p195
I4886
sS'courier'
p196
I3941
sS'person'
p197
I1240
sS'soaked'
p198
I5672
sS'vga'
p199
I1048
sS'recommended'
p200
I1610
sS'causing'
p201
I2453
sS'defiantly'
p202
I6289
sS'doors'
p203
I5724
sS'-bluetooth'
p204
I4029
sS'thrilled'
p205
I1943
sS'welll'
p206
I5731
sS'dakshin'
p207
I6035
sS'mouth'
p208
I1830
sS'addict'
p209
I491
sS'letter'
p210
I2907
sS'macbook'
p211
I169
sS'mainboard'
p212
I3409
sS'professor'
p213
I5284
sS'camp'
p214
I2857
sS'tech'
p215
I38
sS'scream'
p216
I5052
sS'came'
p217
I565
sS'incorporate'
p218
I2754
sS'penang'
p219
I6517
sS'meetings'
p220
I4994
sS'prix'
p221
I4756
sS'participate'
p222
I3574
sS'cheaply'
p223
I1397
sS'691'
p224
I2403
sS'layout'
p225
I2511
sS'quaint'
p226
I5781
sS'menu'
p227
I1231
sS'capex'
p228
I5515
sS'clicker'
p229
I2358
sS'touched'
p230
I1127
sS'rich'
p231
I2849
sS'heartily'
p232
I2604
sS'rice'
p233
I4306
sS'plate'
p234
I3934
sS'4.00'
p235
I6155
sS'inoperative'
p236
I2903
sS'pocket'
p237
I3986
sS'altogether'
p238
I4187
sS'tips'
p239
I5138
sS'greens'
p240
I5622
sS'nicely'
p241
I1419
sS'sligtly'
p242
I6212
sS'3dmark6'
p243
I3562
sS'guizhou'
p244
I5746
sS'reinsalled'
p245
I2251
sS'respond'
p246
I2386
sS'disaster'
p247
I6221
sS'fair'
p248
I4192
sS'sensitivity'
p249
I3510
sS'deemed'
p250
I2059
sS'unexpectedly'
p251
I1606
sS'pinot'
p252
I5470
sS'result'
p253
I2896
sS'fail'
p254
I2731
sS'best'
p255
I428
sS'48th'
p256
I6039
sS'pressured'
p257
I4374
sS'lots'
p258
I77
sS'score'
p259
I3563
sS'metrazur'
p260
I5119
sS'skimpy'
p261
I6462
sS'men'
p262
I1006
sS'parallels'
p263
I3769
sS'extend'
p264
I360
sS'nature'
p265
I1764
sS'smelled'
p266
I4529
sS'openning'
p267
I3038
sS'accident'
p268
I3487
sS'sacrificing'
p269
I1520
sS'refinement'
p270
I4449
sS'country'
p271
I448
sS'adapter'
p272
I2332
sS'heating'
p273
I2980
sS'planned'
p274
I3602
sS'dents'
p275
I1861
sS'garageband'
p276
I1184
sS'asked'
p277
I794
sS'30th'
p278
I4190
sS'vain'
p279
I3105
sS'vaio'
p280
I1872
sS'compuer'
p281
I2603
sS'improvment'
p282
I884
sS'2nd'
p283
I1714
sS'250'
p284
I2371
sS'chrome'
p285
I3283
sS'fri'
p286
I6042
sS'restarts'
p287
I3522
sS'much'
p288
I105
sS'sommelier'
p289
I5818
sS'dreamweaver'
p290
I2302
sS'tonino'
p291
I6937
sS'tutorials'
p292
I948
sS'fry'
p293
I6326
sS'spongey'
p294
I4161
sS'incompetent'
p295
I5761
sS'life'
p296
I22
sS'recomend'
p297
I1239
sS'eastern'
p298
I3195
sS'nb205s'
p299
I3795
sS'worker'
p300
I7008
sS'child'
p301
I1962
sS'worked'
p302
I641
sS'l455'
p303
I3793
sS'chill'
p304
I2666
sS'heavier'
p305
I2088
sS'employ'
p306
I6735
sS'jamun'
p307
I5168
sS'played'
p308
I1668
sS'player'
p309
I2248
sS'upscale'
p310
I4478
sS'anticipating'
p311
I5062
sS'1-year'
p312
I2994
sS'trusted'
p313
I2259
sS'damaged'
p314
I1040
sS'taped'
p315
I1059
sS'portobello'
p316
I6504
sS'things'
p317
I273
sS'toaster'
p318
I4330
sS'rebellion'
p319
I3695
sS'split'
p320
I4159
sS'toasted'
p321
I6613
sS'european'
p322
I5872
sS'fairly'
p323
I1550
sS'tiffin'
p324
I6186
sS'boiled'
p325
I4613
sS'inadvertently'
p326
I1658
sS'ownership'
p327
I3773
sS'tuna'
p328
I4446
sS'academic'
p329
I3426
sS'realtively'
p330
I6305
sS'thing-'
p331
I203
sS'10-months'
p332
I3900
sS'echoes'
p333
I6883
sS'fantastic'
p334
I1915
sS'financially'
p335
I2185
sS'lassi'
p336
I5375
sS'rushing'
p337
I5399
sS'previous'
p338
I1073
sS'reboot'
p339
I1688
sS'ease'
p340
I767
sS'had'
p341
I33
sS'emphasis'
p342
I5486
sS'easy'
p343
I98
sS'has'
p344
I88
sS'preciously'
p345
I3359
sS'possible'
p346
I2501
sS'possibly'
p347
I2683
sS'otherworldly'
p348
I6921
sS'unique'
p349
I1679
sS'6:00'
p350
I5219
sS'remind'
p351
I2639
sS'attorney'
p352
I7007
sS'right'
p353
I1342
sS'old'
p354
I504
sS'crowd'
p355
I4674
sS'people'
p356
I78
sS'topping'
p357
I6466
sS'captive'
p358
I2523
sS'varietys'
p359
I6424
sS'enemies'
p360
I4054
sS'okra'
p361
I5093
sS'for'
p362
I71
sS'bottom'
p363
I2594
sS'creative'
p364
I1492
sS'continue'
p365
I2982
sS'pondered'
p366
I3234
sS'foo'
p367
I5323
sS'ciro'
p368
I6890
sS'shakes'
p369
I4972
sS"ol'"
p370
I4052
sS'barcode'
p371
I3759
sS'stylish'
p372
I2724
sS'memorable'
p373
I6209
sS'manufacturing'
p374
I3215
sS'benches'
p375
I4263
sS' <LEFT PARENTHESIS> '
p376
I194
sS'dollars'
p377
I376
sS'o'
p378
I3784
sS'emilio'
p379
I5012
sS'lacked'
p380
I5776
sS'slightly'
p381
I3328
sS'match'
p382
I6469
sS'facility'
p383
I4104
sS'soh'
p384
I5968
sS'honeymoon'
p385
I3150
sS'sol'
p386
I3276
sS'soo'
p387
I6828
sS'son'
p388
I111
sS'soy'
p389
I4654
sS'mbp'
p390
I2155
sS'support'
p391
I128
sS'constantly'
p392
I689
sS'width'
p393
I3338
sS'definatly'
p394
I2048
sS'sowish'
p395
I2658
sS'happy'
p396
I560
sS'offer'
p397
I1198
sS'understandable'
p398
I6044
sS'emilio(the'
p399
I6596
sS'congratulations'
p400
I1538
sS'inside'
p401
I1220
sS'devices'
p402
I303
sS'nicest'
p403
I4993
sS'lays'
p404
I5509
sS'servings'
p405
I5421
sS'repair*-apple'
p406
I1709
sS'pricing'
p407
I2808
sS'150'
p408
I1767
sS'later'
p409
I483
sS'159'
p410
I2047
sS'calzones'
p411
I5154
sS'exist'
p412
I3966
sS'kha'
p413
I5365
sS'floor'
p414
I3239
sS'accomodating'
p415
I4811
sS'ontop'
p416
I1850
sS'ambitious'
p417
I5607
sS'smell'
p418
I5983
sS'roll'
p419
I4050
sS"'s"
p420
I298
sS'models'
p421
I3271
sS'transported'
p422
I5636
sS"'d"
p423
I909
sS'recenlty'
p424
I3131
sS'fedeli'
p425
I5825
sS'rolling'
p426
I7035
sS"'m"
p427
I419
sS'manhattanite'
p428
I5938
sS'time'
p429
I80
sS'push'
p430
I1976
sS'osx'
p431
I1680
sS':)'
p432
I410
sS'chain'
p433
I6363
sS'whoever'
p434
I4370
sS'reviewers'
p435
I5007
sS'phonenumber'
p436
I897
sS'chair'
p437
I6362
sS'92'
p438
I3713
sS'freelance'
p439
I3958
sS'veg'
p440
I6971
sS'connecting'
p441
I2812
sS'downloading'
p442
I3634
sS'icing'
p443
I6007
sS'prepaid'
p444
I2293
sS'choice'
p445
I1305
sS'knapsack'
p446
I4071
sS'stays'
p447
I5532
sS'exact'
p448
I3155
sS'minute'
p449
I3251
sS'cooks'
p450
I5977
sS'mahi'
p451
I6925
sS'tear'
p452
I1936
sS'leave'
p453
I996
sS'solved'
p454
I1346
sS'settle'
p455
I3894
sS'subway'
p456
I5298
sS'team'
p457
I55
sS'loads'
p458
I520
sS'wannabes'
p459
I4677
sS'droid'
p460
I325
sS'findings'
p461
I6400
sS'sigh'
p462
I5342
sS'sign'
p463
I2217
sS'catatonic'
p464
I3843
sS'tartare'
p465
I5405
sS'celebrated'
p466
I2517
sS'melt'
p467
I4885
sS'current'
p468
I3201
sS'remembered'
p469
I6061
sS'kofta'
p470
I6857
sS'bargin'
p471
I1472
sS'falling'
p472
I1929
sS'crashing'
p473
I691
sS'boost'
p474
I2627
sS'oldies'
p475
I6698
sS'grandparents'
p476
I1612
sS'understanding'
p477
I3779
sS'snack'
p478
I6178
sS'yards'
p479
I1201
sS'address'
p480
I2755
sS'alone'
p481
I2450
sS'along'
p482
I430
sS'expensve'
p483
I3961
sS'accomplishes'
p484
I5587
sS'brilliant'
p485
I4797
sS'wherever'
p486
I6740
sS'accomplished'
p487
I3954
sS'crumbled'
p488
I4238
sS'studies'
p489
I3427
sS'tasks'
p490
I1777
sS'love'
p491
I278
sS'pentium'
p492
I3746
sS'prefer'
p493
I3919
sS'bloody'
p494
I1986
sS'marvelous'
p495
I5224
sS'fake'
p496
I4125
sS'sky'
p497
I3318
sS'crammed'
p498
I6782
sS'working'
p499
I406
sS'18-inch'
p500
I4108
sS'positive'
p501
I4847
sS'angry'
p502
I5372
sS'tightly'
p503
I3141
sS'opposed'
p504
I1274
sS'wondering'
p505
I4496
sS'scopa'
p506
I5452
sS'loving'
p507
I3037
sS'introducing'
p508
I5489
sS'afford'
p509
I2749
sS'visual'
p510
I3930
sS'everywhere'
p511
I2991
sS'scratches'
p512
I1860
sS'easiest'
p513
I1232
sS'originally'
p514
I1855
sS'printing'
p515
I3750
sS'values'
p516
I4620
sS'following'
p517
I5379
sS'logon'
p518
I2897
sS'awesome'
p519
I1258
sS'graduation'
p520
I824
sS'allowed'
p521
I6242
sS'winter'
p522
I5678
sS'deserves'
p523
I4945
sS'vancouver'
p524
I1481
sS'powerbooks'
p525
I1290
sS'optimal'
p526
I3931
sS'orginal'
p527
I6274
sS'explorer'
p528
I1694
sS'casualness'
p529
I6635
sS'spot'
p530
I2984
sS'applications'
p531
I97
sS'explored'
p532
I5910
sS'date'
p533
I464
sS'such'
p534
I1112
sS'suck'
p535
I3528
sS'data'
p536
I1471
sS'shockingly'
p537
I3520
sS'surfing'
p538
I2145
sS'varieties'
p539
I4443
sS'agreable'
p540
I6345
sS'wheelchair'
p541
I3227
sS'ordinarily'
p542
I3862
sS'st'
p543
I4222
sS'mango'
p544
I6750
sS'so'
p545
I34
sS'pulled'
p546
I2179
sS'blowup'
p547
I6752
sS'scents'
p548
I4430
sS'sd'
p549
I1725
sS'drunken'
p550
I6323
sS'snapple'
p551
I6458
sS'nobu'
p552
I5654
sS'webpage'
p553
I2678
sS'unacceptable'
p554
I3909
sS'years'
p555
I413
sS'course'
p556
I1181
sS'avid'
p557
I2481
sS'lackluster'
p558
I2528
sS'cleanest'
p559
I6401
sS'bagels'
p560
I4214
sS'torn'
p561
I3015
sS'louisville'
p562
I2406
sS'faves'
p563
I6136
sS'attraction'
p564
I6281
sS'ninteenth'
p565
I3792
sS'decreased'
p566
I1942
sS'instantly'
p567
I3981
sS'recipients'
p568
I1836
sS'matches'
p569
I4883
sS'thalia'
p570
I6036
sS'overpowering'
p571
I6841
sS'compelled'
p572
I4952
sS'1:00am'
p573
I4904
sS'runners'
p574
I6414
sS'matched'
p575
I4012
sS'quarter'
p576
I3098
sS'repaired'
p577
I253
sS'stalling'
p578
I4436
sS'square'
p579
I5485
sS'spontaniously'
p580
I2101
sS'owing'
p581
I2599
sS'entering'
p582
I5382
sS'salads'
p583
I4642
sS'rounding'
p584
I3680
sS'believers'
p585
I2893
sS'seriously'
p586
I2499
sS'investigation'
p587
I3794
sS'cobb'
p588
I6251
sS'internet'
p589
I576
sS'ocasionally'
p590
I4489
sS'million'
p591
I3173
sS'material'
p592
I3387
sS'quite'
p593
I1547
sS'recordings'
p594
I3260
sS'complicated'
p595
I3292
sS'besides'
p596
I3301
sS'vegetarians'
p597
I6662
sS'quits'
p598
I2249
sS'seventy'
p599
I1486
sS'punk'
p600
I4230
sS'routed'
p601
I1682
sS'massive'
p602
I3719
sS'routes'
p603
I3293
sS'router'
p604
I2813
sS'8500'
p605
I3564
sS'intuition'
p606
I4146
sS'saving'
p607
I1331
sS'spoken'
p608
I4392
sS'clause'
p609
I798
sS'distan'
p610
I2174
sS'one'
p611
I112
sS'tamari'
p612
I5890
sS'mignon'
p613
I4712
sS'fornino'
p614
I6088
sS'open'
p615
I557
sS'fornini'
p616
I5335
sS'city'
p617
I4290
sS'bite'
p618
I4573
sS'indicate'
p619
I4185
sS'2'
p620
I196
sS'stuffed'
p621
I5934
sS'definitly'
p622
I3542
sS'proving'
p623
I4105
sS'ridiculous'
p624
I1434
sS'simmered'
p625
I5182
sS'fooled'
p626
I4956
sS'boyfriend'
p627
I2029
sS'translate'
p628
I4040
sS'iceberg'
p629
I5623
sS'scrumptious'
p630
I5753
sS'coats'
p631
I5725
sS'future'
p632
I426
sS'glossy'
p633
I1303
sS'surprisingly'
p634
I4922
sS'proactive'
p635
I3466
sS'prospect'
p636
I6063
sS'san'
p637
I2415
sS'nicer'
p638
I1066
sS'sal'
p639
I4600
sS'turned'
p640
I140
sS'locations'
p641
I4383
sS'alley'
p642
I6051
sS'sad'
p643
I107
sS'~$55.00'
p644
I6489
sS'say'
p645
I124
sS'buried'
p646
I6898
sS'lurking'
p647
I6311
sS'saw'
p648
I65
sS'sat'
p649
I4301
sS'taks'
p650
I3883
sS'general'
p651
I915
sS'downwards'
p652
I3021
sS'aside'
p653
I3124
sS'note'
p654
I1822
sS'graciously'
p655
I6475
sS'take'
p656
I244
sS'wanting'
p657
I1613
sS'printer'
p658
I1478
sS'opposite'
p659
I2065
sS'knew'
p660
I337
sS'buffet'
p661
I5892
sS'pages'
p662
I1901
sS'peice'
p663
I2274
sS'sala'
p664
I5340
sS'average'
p665
I871
sS'sale'
p666
I3247
sS'ways'
p667
I5860
sS'link'
p668
I1784
sS'salt'
p669
I5546
sS'walking'
p670
I3013
sS'lotus'
p671
I5867
sS'grilling'
p672
I6940
sS'bright'
p673
I289
sS'inconsistent'
p674
I5357
sS'calamari'
p675
I4657
sS'slow'
p676
I368
sS'recomended'
p677
I4020
sS'handiecap'
p678
I1101
sS'foward'
p679
I4279
sS'going'
p680
I276
sS'equipped'
p681
I3604
sS'freezing'
p682
I1000
sS'cursing'
p683
I2487
sS'grafics'
p684
I3143
sS'prime'
p685
I5677
sS'prima'
p686
I4794
sS'artist'
p687
I3513
sS'hinges'
p688
I2368
sS'primi'
p689
I6353
sS'borrow'
p690
I1956
sS'absurdly'
p691
I5611
sS'worried'
p692
I3844
sS' <QUESTION_MARK> '
p693
I653
sS'where'
p694
I592
sS'multiplied'
p695
I6864
sS'americanized'
p696
I6387
sS'anyways'
p697
I1801
sS'impressions'
p698
I698
sS'jumped'
p699
I2272
sS'sites'
p700
I2462
sS'thime'
p701
I3044
sS'affecting'
p702
I1672
sS'navigates'
p703
I3204
sS'grammercy'
p704
I6987
sS'edamame'
p705
I4801
sS'jobs'
p706
I3649
sS'screen'
p707
I150
sS'spare'
p708
I3315
sS'undermine'
p709
I5514
sS'many'
p710
I35
sS's'
p711
I269
sS'backpack'
p712
I3228
sS'twin'
p713
I1616
sS'anti'
p714
I3911
sS'comeback'
p715
I5025
sS'cokes'
p716
I6488
sS'caring'
p717
I2008
sS'companionship'
p718
I6055
sS'stretch'
p719
I3933
sS'west'
p720
I2400
sS'locally'
p721
I1180
sS'vacation'
p722
I2086
sS'combined'
p723
I2357
sS'wants'
p724
I2484
sS'enable'
p725
I3481
sS'lanes'
p726
I6988
sS'thousand'
p727
I1857
sS'formed'
p728
I4498
sS'antivirus'
p729
I1404
sS'photos'
p730
I2323
sS'tightened'
p731
I3581
sS'.the'
p732
I5577
sS'undercooked'
p733
I5356
sS'consultant'
p734
I1719
sS'engineering'
p735
I3987
sS'resturant'
p736
I3380
sS'policies'
p737
I4039
sS'squeezed'
p738
I5176
sS'situation'
p739
I2578
sS'kennsington'
p740
I6938
sS'spotlight'
p741
I1448
sS'ctrl'
p742
I2010
sS'canon'
p743
I2310
sS'chiclet'
p744
I1295
sS'blah'
p745
I6082
sS'ambient'
p746
I5948
sS'technology'
p747
I1008
sS'13.3'
p748
I2606
sS'ingrained'
p749
I1195
sS'sterling'
p750
I5296
sS'visually'
p751
I3612
sS'wires'
p752
I2802
sS'hydes'
p753
I6997
sS'singapore'
p754
I5759
sS'cheers'
p755
I4823
sS'wpm'
p756
I1019
sS'edges'
p757
I2473
sS'wired'
p758
I1796
sS'deff'
p759
I4380
sS'tracking'
p760
I231
sS'costs'
p761
I2173
sS'veal'
p762
I5049
sS'summer'
p763
I5422
sS'mocaramel'
p764
I4951
sS'mussaman'
p765
I6473
sS'steamed'
p766
I5850
sS'being'
p767
I925
sS'rest'
p768
I2475
sS'personaly'
p769
I4201
sS'recycled'
p770
I3886
sS'm-50'
p771
I1766
sS'barbecued'
p772
I5426
sS'weekly'
p773
I6947
sS'rover'
p774
I1666
sS'deceiving'
p775
I6037
sS'contactus@euro.apple.com'
p776
I3269
sS'overcompensate'
p777
I5971
sS'starving'
p778
I4897
sS'aspects'
p779
I3613
sS'around'
p780
I350
sS'period'
p781
I4043
sS'dark'
p782
I152
sS'traffic'
p783
I4731
sS'preference'
p784
I6525
sS'world'
p785
I1704
sS'postal'
p786
I7022
sS'irreplaceable'
p787
I3838
sS'dare'
p788
I4960
sS'satisfaction'
p789
I2600
sS'clam'
p790
I4844
sS'intel'
p791
I1230
sS'atlhough'
p792
I6854
sS'overhyped'
p793
I6355
sS'rearely'
p794
I6619
sS'cusromer'
p795
I1843
sS'seating'
p796
I4483
sS'a65'
p797
I3969
sS'supplementary'
p798
I1775
sS'lobster'
p799
I4433
sS'pickles'
p800
I4268
sS'divine'
p801
I6723
sS'thinks'
p802
I3298
sS'excelent'
p803
I1771
sS'tote'
p804
I3836
sS'noon'
p805
I2150
sS'favourite'
p806
I5229
sS'23rd'
p807
I5210
sS'francois'
p808
I6676
sS'sevpuri'
p809
I5756
sS'onlne'
p810
I4021
sS'1x4'
p811
I3714
sS'power'
p812
I153
sS'intimate'
p813
I4747
sS'malfunctioning'
p814
I2687
sS'ration'
p815
I5660
sS'standpoint'
p816
I1083
sS'thailand'
p817
I4241
sS'usha'
p818
I6993
sS'unattentive'
p819
I4558
sS'industry'
p820
I2536
sS'paninis'
p821
I5234
sS'favorite'
p822
I751
sS'meal'
p823
I4326
sS'netbook'
p824
I61
sS'neighbor'
p825
I4975
sS'act'
p826
I6581
sS'mean'
p827
I2444
sS'advanatage'
p828
I6050
sS'burning'
p829
I2170
sS'headsets'
p830
I3342
sS'image'
p831
I1769
sS'freaked'
p832
I2944
sS'fritters'
p833
I6974
sS'lively'
p834
I3484
sS'parties'
p835
I2098
sS'bubbly'
p836
I6234
sS'her'
p837
I1721
sS'hey'
p838
I5947
sS'meals'
p839
I5596
sS'sealed'
p840
I1618
sS'survives'
p841
I2520
sS'recommends'
p842
I4203
sS'complete'
p843
I2064
sS'beginners'
p844
I3617
sS'antiquated'
p845
I2493
sS'unreliable'
p846
I1526
sS'with'
p847
I16
sS'featuring'
p848
I4576
sS'buying'
p849
I351
sS'pull'
p850
I2363
sS'rush'
p851
I4959
sS'raga'
p852
I4303
sS'dirty'
p853
I989
sS'trips'
p854
I2471
sS'darker'
p855
I2953
sS'detailed'
p856
I3927
sS'gone'
p857
I598
sS'ac'
p858
I3461
sS'ai'
p859
I3415
sS'certain'
p860
I518
sS'am'
p861
I287
sS'an'
p862
I181
sS'as'
p863
I104
sS'ar'
p864
I5476
sS'au'
p865
I4317
sS'at'
p866
I9
sS'utsav'
p867
I6592
sS'cream'
p868
I5278
sS'2003'
p869
I4151
sS'novice'
p870
I2419
sS'graduate'
p871
I3278
sS'tight'
p872
I5128
sS'unparalleled'
p873
I3830
sS'tagliatelle'
p874
I5544
sS'chutneys'
p875
I6817
sS'kruno'
p876
I4567
sS'branzino'
p877
I4412
sS'hewlitt'
p878
I3022
sS'waving'
p879
I4996
sS'herbs'
p880
I5580
sS'having'
p881
I234
sS'cpu'
p882
I2494
sS'externally'
p883
I1932
sS'consider'
p884
I274
sS'caused'
p885
I678
sS'beware'
p886
I1518
sS'causes'
p887
I1356
sS'attentive'
p888
I4595
sS'tv'
p889
I950
sS'to'
p890
I49
sS'tail'
p891
I6808
sS'th'
p892
I4808
sS'dressing'
p893
I4314
sS'smile'
p894
I4604
sS'nori'
p895
I5842
sS'case'
p896
I1561
sS'appointment'
p897
I3052
sS'returned'
p898
I482
sS'batok'
p899
I3803
sS'excpetiona'
p900
I5921
sS'condition'
p901
I1529
sS'sans'
p902
I5604
sS'cable'
p903
I2214
sS'laying'
p904
I6843
sS't.'
p905
I3497
sS'dinosaur'
p906
I7043
sS'prosciutto'
p907
I5230
sS'adjust'
p908
I3509
sS'machouse'
p909
I1742
sS'small'
p910
I241
sS'quicker'
p911
I1077
sS'gnochi'
p912
I6478
sS'past'
p913
I411
sS'pass'
p914
I5542
sS'situated'
p915
I5970
sS'clock'
p916
I437
sS'section'
p917
I5447
sS'whiff'
p918
I4970
sS'tanya'
p919
I6544
sS'method'
p920
I3233
sS'contrast'
p921
I5914
sS'full'
p922
I1466
sS'leaping'
p923
I4521
sS'hours'
p924
I197
sS'smartest'
p925
I1572
sS'november'
p926
I4044
sS'brutal'
p927
I4113
sS'pics'
p928
I579
sS'prior'
p929
I2816
sS'occassionally'
p930
I4074
sS'social'
p931
I3118
sS'action'
p932
I1607
sS"would've"
p933
I5814
sS'sweetness'
p934
I5089
sS'via'
p935
I1603
sS'apprised'
p936
I4486
sS'select'
p937
I3891
sS'ridding'
p938
I5423
sS'occassion'
p939
I5498
sS'implore'
p940
I4016
sS'gorgeous'
p941
I101
sS'preloaded'
p942
I417
sS'more'
p943
I121
sS'door'
p944
I2490
sS'company'
p945
I268
sS'omelletes'
p946
I5339
sS'unbeliavably'
p947
I4986
sS'leary'
p948
I5177
sS'bedford'
p949
I6627
sS'keeping'
p950
I2057
sS'pleasing'
p951
I3311
sS'science'
p952
I3519
sS'installing'
p953
I3039
sS'evolved'
p954
I1001
sS'learn'
p955
I664
sS'beautiful'
p956
I1865
sS'prompt'
p957
I3848
sS'scan'
p958
I550
sS'suggestions'
p959
I1286
sS'accept'
p960
I1940
sS'states'
p961
I2563
sS'salty'
p962
I4953
sS'sense'
p963
I896
sS'ati'
p964
I3144
sS'dress'
p965
I5791
sS'information'
p966
I2703
sS'thumbs'
p967
I5352
sS'freshly'
p968
I5444
sS'dills'
p969
I6406
sS'plans'
p970
I6539
sS'waitstaff'
p971
I5000
sS'countryside'
p972
I5637
sS'plane'
p973
I3902
sS'backyard'
p974
I6716
sS'evaluations'
p975
I2377
sS'authentic'
p976
I4397
sS'm60'
p977
I3853
sS'refuse'
p978
I1950
sS'nvidia'
p979
I2379
sS'patio'
p980
I5916
sS'pans'
p981
I4841
sS'bhelpuri'
p982
I5755
sS'mexican'
p983
I4592
sS'enraged'
p984
I2486
sS'bowl'
p985
I6722
sS'mousse'
p986
I6695
sS'installed'
p987
I323
sS'attitude'
p988
I4967
sS'paper'
p989
I3028
sS'signs'
p990
I1862
sS'broadway'
p991
I6200
sS'its'
p992
I460
sS'alla'
p993
I6826
sS"dosen't"
p994
I2392
sS'bummer'
p995
I923
sS'sauce'
p996
I4655
sS'colleague'
p997
I4118
sS'wasabe'
p998
I6303
sS'snobs'
p999
I5769
sS'skipped'
p1000
I6176
sS'propose'
p1001
I3432
sS'gadget'
p1002
I1140
sS'wasabi'
p1003
I6957
sS'susans'
p1004
I6964
sS'sucked'
p1005
I3274
sS'everytime'
p1006
I2195
sS'always'
p1007
I643
sS'courses'
p1008
I3230
sS'piping'
p1009
I5624
sS'royality'
p1010
I4501
sS'found'
p1011
I1216
sS'status'
p1012
I2383
sS'england'
p1013
I5413
sS'upstairs'
p1014
I6386
sS'reduce'
p1015
I1272
sS'numeric'
p1016
I3011
sS'slowdown'
p1017
I3023
sS'exorbitant'
p1018
I6939
sS'investigated'
p1019
I63
sS'operation'
p1020
I1574
sS'really'
p1021
I358
sS'inquired'
p1022
I2382
sS'missed'
p1023
I4588
sS'scoops'
p1024
I6181
sS'15.4-inch'
p1025
I718
sS'research'
p1026
I2154
sS'tiramisu'
p1027
I4699
sS'awkardly'
p1028
I6855
sS'occurs'
p1029
I3004
sS'liquers'
p1030
I5313
sS'risen'
p1031
I4601
sS'calzone'
p1032
I5986
sS'imaging'
p1033
I3358
sS'imagine'
p1034
I544
sS'definition'
p1035
I3736
sS'owners'
p1036
I5026
sS'persons'
p1037
I5935
sS'sensations'
p1038
I5268
sS'w'
p1039
I4143
sS'major'
p1040
I1366
sS'slipped'
p1041
I6552
sS'6.00'
p1042
I5962
sS'number'
p1043
I501
sS'guess'
p1044
I1169
sS'heads'
p1045
I5175
sS'guest'
p1046
I4690
sS'jet'
p1047
I6936
sS'benedict'
p1048
I4760
sS'moderately'
p1049
I4800
sS'custards'
p1050
I5141
sS'jem'
p1051
I6141
sS'5.99'
p1052
I6973
sS'warmly'
p1053
I4949
sS'relationship'
p1054
I1907
sS'immediate'
p1055
I3967
sS' <EXCLAMATION_MARK> '
p1056
I122
sS'appreciation'
p1057
I6161
sS'typhoon'
p1058
I6535
sS'grace'
p1059
I1332
sS'excelent.i'
p1060
I5674
sS'determined'
p1061
I2191
sS'video'
p1062
I1424
sS'seamlessly'
p1063
I2657
sS'hewitt'
p1064
I1811
sS'remembers'
p1065
I5042
sS'jerked'
p1066
I3913
sS'defect'
p1067
I1245
sS'blond'
p1068
I5457
sS'qpr'
p1069
I6516
sS'sell'
p1070
I6616
sS'spaghetti'
p1071
I6090
sS'self'
p1072
I489
sS'happeneing'
p1073
I3637
sS'also'
p1074
I352
sS'internal'
p1075
I1234
sS'play'
p1076
I309
sS'blackboard'
p1077
I6678
sS'swiftly'
p1078
I834
sS'affordability'
p1079
I2977
sS'unused'
p1080
I1042
sS'yawn'
p1081
I6095
sS'brooklyn'
p1082
I4421
sS'plan'
p1083
I2741
sS'oyster'
p1084
I6651
sS'understands'
p1085
I3870
sS'incase'
p1086
I4095
sS'sometimes'
p1087
I315
sS'cover'
p1088
I2701
sS'lounge'
p1089
I6280
sS'asus'
p1090
I201
sS'microsoft'
p1091
I332
sS'itouch'
p1092
I2846
sS'chowder'
p1093
I6101
sS'gold'
p1094
I3826
sS'afortune'
p1095
I5789
sS'ugg'
p1096
I6612
sS'aratings'
p1097
I3163
sS'desolate'
p1098
I6062
sS'overwhelmed'
p1099
I4252
sS'failed'
p1100
I859
sS'motherboards'
p1101
I3453
sS'factor'
p1102
I975
sS'gratis'
p1103
I5808
sS'occuring'
p1104
I3170
sS'ceasing'
p1105
I3654
sS'defitely'
p1106
I6645
sS'preparing'
p1107
I5861
sS'closely'
p1108
I3006
sS'charmingly'
p1109
I6040
sS'devoured'
p1110
I4680
sS'cry'
p1111
I7017
sS'inbuilt'
p1112
I1393
sS'river'
p1113
I4891
sS'insane'
p1114
I621
sS'scenery'
p1115
I6131
sS'set'
p1116
I82
sS'carozza'
p1117
I6815
sS'overwhelm'
p1118
I5572
sS'startup'
p1119
I3788
sS'tip'
p1120
I2261
sS'toons'
p1121
I4334
sS'migration'
p1122
I804
sS'sea'
p1123
I4510
sS'#'
p1124
I1501
sS'movie'
p1125
I782
sS'currently'
p1126
I1683
sS'compliment'
p1127
I6407
sS'available'
p1128
I793
sS'immoble'
p1129
I2835
sS'sparsely'
p1130
I6250
sS'brewing'
p1131
I3965
sS'incident'
p1132
I4140
sS'interface'
p1133
I1386
sS'improved'
p1134
I1119
sS'19.95'
p1135
I5220
sS'connection'
p1136
I2806
sS'improves'
p1137
I6437
sS'pdf'
p1138
I3980
sS'whole'
p1139
I1433
sS'load'
p1140
I1067
sS'waitressing'
p1141
I4943
sS'town-'
p1142
I76
sS'bell'
p1143
I1035
sS'acted'
p1144
I6010
sS'northeastern'
p1145
I5178
sS'-very'
p1146
I4038
sS'community'
p1147
I4605
sS'except'
p1148
I1516
sS'scallop'
p1149
I5836
sS'agents'
p1150
I2561
sS'configured'
p1151
I1555
sS'ley'
p1152
I5967
sS'improvement'
p1153
I3997
sS'belt'
p1154
I5839
sS'ibookg4'
p1155
I3611
sS'worthless'
p1156
I3671
sS'conveyor'
p1157
I6706
sS'monthly'
p1158
I4534
sS'bluescreened'
p1159
I3641
sS'proprietor'
p1160
I4992
sS'boston'
p1161
I6687
sS'extreme'
p1162
I5974
sS'firm'
p1163
I6500
sS"did'nt"
p1164
I6960
sS'fire'
p1165
I2287
sS'fund'
p1166
I170
sS'races'
p1167
I1103
sS'in.mac'
p1168
I2041
sS'towns'
p1169
I4912
sS'handling'
p1170
I418
sS'reinstalled'
p1171
I2527
sS'surpised'
p1172
I6506
sS'hostess'
p1173
I4442
sS'reliable'
p1174
I855
sS'expanded'
p1175
I4679
sS'budget'
p1176
I2748
sS'sesame'
p1177
I5837
sS'technical'
p1178
I534
sS'pressed'
p1179
I2902
sS'error'
p1180
I917
sS'secluded'
p1181
I5826
sS'pound'
p1182
I5135
sS'hoping'
p1183
I848
sS'7hrs'
p1184
I2026
sS'calculator'
p1185
I2964
sS'vow'
p1186
I6235
sS'mott'
p1187
I6583
sS'owes'
p1188
I1010
sS'beautifully'
p1189
I3030
sS'cuisine'
p1190
I4243
sS'decor'
p1191
I4289
sS'barney'
p1192
I5133
sS'seek'
p1193
I6360
sS'shorter'
p1194
I1752
sS'rules'
p1195
I5518
sS'guarentee'
p1196
I2662
sS'wasteland'
p1197
I6067
sS'resulting'
p1198
I4041
sS'now,,,,,my'
p1199
I1863
sS'snail'
p1200
I4089
sS'flooded'
p1201
I5171
sS'cigar'
p1202
I5946
sS'ziti'
p1203
I6379
sS'walmart'
p1204
I2270
sS'leaps'
p1205
I1631
sS'mussel'
p1206
I6127
sS'stack'
p1207
I612
sS'recent'
p1208
I270
sS'canned'
p1209
I5984
sS'iweb'
p1210
I2276
sS'picks'
p1211
I3735
sS'regretting'
p1212
I1487
sS'hutner'
p1213
I6995
sS'plagued'
p1214
I4065
sS'drizzled'
p1215
I5960
sS'surprises'
p1216
I5017
sS'dhal'
p1217
I6848
sS'signals'
p1218
I2181
sS'snappy'
p1219
I4832
sS'parents'
p1220
I1611
sS'location'
p1221
I5029
sS'shoestring'
p1222
I6610
sS'limp'
p1223
I6370
sS'surprised'
p1224
I3207
sS'chess'
p1225
I3755
sS'daiquiries'
p1226
I6878
sS'format'
p1227
I4049
sS'couple'
p1228
I400
sS'imovie'
p1229
I1185
sS'coupla'
p1230
I1874
sS'quess'
p1231
I3932
sS'projects'
p1232
I2656
sS'wirelessly'
p1233
I2804
sS'sorting'
p1234
I3471
sS'd'
p1235
I2005
sS'individuals'
p1236
I4495
sS'sonystyle.com'
p1237
I3753
sS'alexandra'
p1238
I846
sS'spring'
p1239
I6862
sS'sorbet'
p1240
I5266
sS'b+'
p1241
I6628
sS'sufficient'
p1242
I6421
sS'and/or'
p1243
I3291
sS'be'
p1244
I444
sS'bo'
p1245
I4740
sS'nowhere'
p1246
I2345
sS'santa'
p1247
I2417
sS'chole'
p1248
I6846
sS'relating'
p1249
I3265
sS'by'
p1250
I600
sS'cubersome'
p1251
I3808
sS'anything'
p1252
I863
sS'unintentional'
p1253
I5038
sS'repair'
p1254
I262
sS'garbage'
p1255
I2699
sS'into'
p1256
I615
sS'recreate'
p1257
I1243
sS'integral'
p1258
I3116
sS'servers'
p1259
I4671
sS'appropriate'
p1260
I6404
sS'contributor'
p1261
I3284
sS'span'
p1262
I2611
sS'arcade'
p1263
I1629
sS'tasting'
p1264
I5969
sS'spending'
p1265
I1064
sS'duplicate'
p1266
I1241
sS'specifically'
p1267
I3079
sS'custom'
p1268
I1281
sS'bios'
p1269
I438
sS'worht'
p1270
I5786
sS'a+++'
p1271
I6820
sS'considerably'
p1272
I5389
sS'elsewhere'
p1273
I2589
sS'inches'
p1274
I726
sS'friendlier'
p1275
I6510
sS'jewish'
p1276
I6060
sS'relaxed'
p1277
I4503
sS'buttery'
p1278
I4788
sS'atlantic'
p1279
I5852
sS'line'
p1280
I179
sS'posted'
p1281
I3031
sS'faan'
p1282
I4274
sS'magnificant'
p1283
I4410
sS'up'
p1284
I83
sS'us'
p1285
I1435
sS'paired'
p1286
I5558
sS'un'
p1287
I6228
sS'expese'
p1288
I3756
sS'storing'
p1289
I2745
sS'iworks'
p1290
I2839
sS'chai'
p1291
I6538
sS'influence'
p1292
I2035
sS'diverse'
p1293
I6144
sS'chat'
p1294
I1425
sS'codes'
p1295
I4007
sS'sunken'
p1296
I7054
sS'fixing'
p1297
I1353
sS'scrape'
p1298
I2733
sS'redeeming'
p1299
I4193
sS'occasional'
p1300
I2198
sS'definitely'
p1301
I1542
sS'actors'
p1302
I6156
sS'swirl'
p1303
I4387
sS'tart'
p1304
I6802
sS'oblige'
p1305
I6749
sS'faintly'
p1306
I2870
sS'brushetta'
p1307
I5863
sS'sides'
p1308
I4643
sS'ago'
p1309
I402
sS'land'
p1310
I3479
sS'age'
p1311
I1150
sS'walked'
p1312
I1483
sS'6.25'
p1313
I6441
sS'1764'
p1314
I1953
sS'fresh'
p1315
I363
sS'hello'
p1316
I6307
sS'grabed'
p1317
I3670
sS'essay'
p1318
I3605
sS'northside'
p1319
I5877
sS'code'
p1320
I6869
sS'partial'
p1321
I7045
sS'saying'
p1322
I3081
sS'melts'
p1323
I6173
sS'scratch'
p1324
I2641
sS'results'
p1325
I3799
sS'existing'
p1326
I2239
sS'enjoyable'
p1327
I3214
sS'softer'
p1328
I4086
sS'semicolons'
p1329
I3707
sS'dainty'
p1330
I5329
sS'offerng'
p1331
I5392
sS'seemed'
p1332
I516
sS'concerned'
p1333
I2502
sS'young'
p1334
I2876
sS'send'
p1335
I256
sS'kababs'
p1336
I4518
sS'dislike'
p1337
I3047
sS'sent'
p1338
I465
sS'stocked'
p1339
I6121
sS'garden'
p1340
I4388
sS'torture'
p1341
I2823
sS'continues'
p1342
I3211
sS'balls'
p1343
I3530
sS'unimposing'
p1344
I6606
sS'continued'
p1345
I709
sS'wipe'
p1346
I6629
sS'timely'
p1347
I5479
sS'magic'
p1348
I4997
sS'varys'
p1349
I4368
sS'try'
p1350
I1345
sS'race'
p1351
I1100
sS'lasagnette'
p1352
I4348
sS'xcept'
p1353
I6621
sS'mediterranean'
p1354
I5779
sS'shrimps'
p1355
I5548
sS'hyde'
p1356
I5467
sS'licenses'
p1357
I3557
sS'odd'
p1358
I3946
sS'ues'
p1359
I5004
sS'index'
p1360
I3833
sS'delicous'
p1361
I5896
sS'consistently'
p1362
I4340
sS'indian'
p1363
I4320
sS'turnaround'
p1364
I2184
sS'flowing'
p1365
I6895
sS'nortons'
p1366
I2036
sS'led'
p1367
I1886
sS'urchin'
p1368
I5615
sS'gathered'
p1369
I4396
sS'busy'
p1370
I4607
sS'let'
p1371
I480
sS'clicked'
p1372
I2738
sS'fifteen'
p1373
I1963
sS'vinegar'
p1374
I5183
sS'great'
p1375
I134
sS'casing'
p1376
I2176
sS'receive'
p1377
I1710
sS'involved'
p1378
I2751
sS'eastside'
p1379
I6726
sS'survey'
p1380
I3160
sS'popcorn'
p1381
I6294
sS'contaminants'
p1382
I1350
sS'residents'
p1383
I5657
sS'bookkeeping'
p1384
I3757
sS'makes'
p1385
I1430
sS'maker'
p1386
I4144
sS'involves'
p1387
I2369
sS'firefox'
p1388
I2305
sS'crosby'
p1389
I5215
sS'tools'
p1390
I2963
sS'getup'
p1391
I5424
sS'standing'
p1392
I5102
sS'beachball'
p1393
I2455
sS'theme'
p1394
I6822
sS'next'
p1395
I146
sS'assuring'
p1396
I1528
sS'doubt'
p1397
I2595
sS'doubling'
p1398
I2948
sS'unplug'
p1399
I3658
sS'carrying'
p1400
I3912
sS'baby'
p1401
I1279
sS'fillings'
p1402
I6470
sS'calf(ok'
p1403
I5050
sS'casserole'
p1404
I6317
sS'customer'
p1405
I500
sS'sliv'
p1406
I6068
sS'codfish'
p1407
I5427
sS'animals'
p1408
I4735
sS'portability'
p1409
I2922
sS'this'
p1410
I247
sS'challenge'
p1411
I2819
sS'clients'
p1412
I3639
sS'pour'
p1413
I5311
sS'thin'
p1414
I2602
sS'thia'
p1415
I6931
sS'process'
p1416
I1497
sS'lock'
p1417
I1354
sS'purposes'
p1418
I3290
sS'pieces'
p1419
I1818
sS'high'
p1420
I86
sS'bene'
p1421
I5576
sS'malware'
p1422
I3128
sS'docking'
p1423
I3326
sS'delay'
p1424
I3253
sS'palates'
p1425
I6748
sS'establishment'
p1426
I4499
sS'stand'
p1427
I1333
sS'awesomest'
p1428
I3449
sS'blocks'
p1429
I4877
sS'tiem'
p1430
I5475
sS' <SEMICOLON> '
p1431
I939
sS'weighed'
p1432
I952
sS'notebook'
p1433
I719
sS'fits'
p1434
I1257
sS'upstate'
p1435
I6657
sS'efficiently'
p1436
I1494
sS'tomato'
p1437
I5197
sS'realized'
p1438
I459
sS'ot'
p1439
I2855
sS'someother'
p1440
I4563
sS'noises'
p1441
I1755
sS'b@#$'
p1442
I6197
sS'allow'
p1443
I2505
sS'classy'
p1444
I4826
sS'opinion'
p1445
I1634
sS'counted'
p1446
I4361
sS'thigh'
p1447
I2842
sS'produces'
p1448
I3586
sS'move'
p1449
I916
sS'waltzes'
p1450
I6609
sS'perfect'
p1451
I407
sS'chosen'
p1452
I5163
sS'2011'
p1453
I1391
sS'2010'
p1454
I1738
sS'mediocre'
p1455
I5533
sS'dock'
p1456
I1849
sS'sandpaper'
p1457
I3679
sS'realize'
p1458
I1792
sS'minimalist'
p1459
I4881
sS'upgreade'
p1460
I2645
sS'textbooks'
p1461
I3693
sS'delightful'
p1462
I5574
sS'truth'
p1463
I4924
sS'princesses'
p1464
I5494
sS'accompanied'
p1465
I4641
sS'glasses'
p1466
I4661
sS'<STOP>'
p1467
I5
sS'beginner'
p1468
I2347
sS'doing'
p1469
I775
sS'ambiance'
p1470
I4570
sS'books'
p1471
I2219
sS'static'
p1472
I1270
sS'wander'
p1473
I4672
sS'witness'
p1474
I6728
sS"'"
p1475
I1587
sS'bag'
p1476
I956
sS'freesecuritysoftware'
p1477
I2141
sS'shut'
p1478
I529
sS'greedy'
p1479
I6591
sS'digitus'
p1480
I3482
sS'craving'
p1481
I4625
sS'scary'
p1482
I3094
sS'napoli'
p1483
I6002
sS'could'
p1484
I881
sS'david'
p1485
I4871
sS'pudding'
p1486
I4697
sS'curtious'
p1487
I4321
sS'areo'
p1488
I5559
sS'saul'
p1489
I5244
sS'kendall'
p1490
I6689
sS'blown'
p1491
I3627
sS'scene'
p1492
I4850
sS'owned'
p1493
I964
sS'soothing'
p1494
I4999
sS'owner'
p1495
I765
sS'blows'
p1496
I1400
sS'ordering'
p1497
I3925
sS'system'
p1498
I327
sS'exprience'
p1499
I6531
sS'norton'
p1500
I3294
sS'reccomendation'
p1501
I5591
sS'gummy'
p1502
I4217
sS'stomach'
p1503
I4328
sS'lot'
p1504
I638
sS'boton'
p1505
I6809
sS'accompaniment'
p1506
I6081
sS'anyones'
p1507
I2884
sS'tuscan'
p1508
I6910
sS'bother'
p1509
I330
sS'tortured'
p1510
I3065
sS'appealing'
p1511
I2439
sS'desinged'
p1512
I4163
sS'reproduction'
p1513
I3104
sS'negatively'
p1514
I4431
sS'steep'
p1515
I6675
sS'steer'
p1516
I3727
sS'counter'
p1517
I1758
sS'viewer'
p1518
I2201
sS'dosas'
p1519
I6461
sS'clearly'
p1520
I2778
sS'viewed'
p1521
I833
sS'energeic'
p1522
I6014
sS'documents'
p1523
I670
sS'dishes'
p1524
I4271
sS'4000'
p1525
I3313
sS'sexyy'
p1526
I2004
sS'reloaded'
p1527
I1524
sS';-)'
p1528
I7000
sS'pastis'
p1529
I5626
sS'visa'
p1530
I3786
sS'lunch-'
p1531
I7031
sS'device'
p1532
I458
sS'segment'
p1533
I3722
sS'subsequently'
p1534
I2879
sS'placement'
p1535
I3048
sS'parisian'
p1536
I6152
sS'stronger'
p1537
I2038
sS'face'
p1538
I1807
sS'labtop'
p1539
I2579
sS'fact'
p1540
I567
sS'atmosphere'
p1541
I4240
sS'teased'
p1542
I3066
sS'bring'
p1543
I837
sS'ripoff'
p1544
I4946
sS'probbly'
p1545
I2442
sS'noir'
p1546
I5471
sS'jay'
p1547
I4227
sS'mute'
p1548
I3103
sS'jar'
p1549
I1016
sS'should'
p1550
I493
sS'terminal'
p1551
I5121
sS'iphotos'
p1552
I2476
sS'printers'
p1553
I2840
sS'gaurentee'
p1554
I596
sS'hope'
p1555
I735
sS'meant'
p1556
I2050
sS'handle'
p1557
I2223
sS'repair*-called'
p1558
I606
sS'aanother'
p1559
I5722
sS'means'
p1560
I1130
sS'-apple'
p1561
I3113
sS'lucky'
p1562
I3974
sS'appitizers'
p1563
I6702
sS'walmart.com'
p1564
I3996
sS'=)'
p1565
I1958
sS'abby'
p1566
I6011
sS'strollers'
p1567
I5741
sS'stuff'
p1568
I2288
sS'streamlined'
p1569
I4106
sS'reconize'
p1570
I3947
sS'24hrs'
p1571
I5307
sS'temporarily'
p1572
I2384
sS'bts'
p1573
I6556
sS'pinard'
p1574
I4425
sS'edition'
p1575
I1392
sS'slanted'
p1576
I4171
sS'gaskin'
p1577
I5719
sS'packed'
p1578
I4418
sS'ram/'
p1579
I3146
sS'butternut'
p1580
I6566
sS'exellent'
p1581
I5449
sS'email'
p1582
I515
sS'keynote'
p1583
I1903
sS'configuration'
p1584
I1024
sS'60.00'
p1585
I6691
sS'-complied'
p1586
I3183
sS'figured'
p1587
I3060
sS'etc'
p1588
I85
sS'puff'
p1589
I4309
sS'co'
p1590
I4406
sS'ca'
p1591
I126
sS'cd'
p1592
I1276
sS'arugula'
p1593
I5231
sS'crafted'
p1594
I5511
sS'cr'
p1595
I3033
sS'powered'
p1596
I1827
sS'dazzling'
p1597
I5570
sS'zucchero'
p1598
I5373
sS'poured'
p1599
I5770
sS'utilizing'
p1600
I3112
sS'waste'
p1601
I382
sS'>'
p1602
I2529
sS'commutes'
p1603
I3335
sS'imail'
p1604
I2753
sS'305-n410bl'
p1605
I2882
sS'hateful'
p1606
I2791
sS'graphics'
p1607
I187
sS'toasting'
p1608
I6945
sS'bannan'
p1609
I7010
sS'pretentious'
p1610
I4824
sS'scanned'
p1611
I3188
sS'ultra'
p1612
I4909
sS'pits'
p1613
I4379
sS'artisanal'
p1614
I4461
sS'stuffing'
p1615
I5827
sS'aesthetics'
p1616
I2928
sS've'
p1617
I2313
sS'site'
p1618
I261
sS'hardware'
p1619
I591
sS'vs'
p1620
I5696
sS'vt'
p1621
I4467
sS'sits'
p1622
I1015
sS'romance'
p1623
I6005
sS'l505-s5988'
p1624
I2360
sS'logic'
p1625
I6237
sS'upon'
p1626
I1521
sS'pita'
p1627
I5707
sS'dust'
p1628
I3303
sS'expand'
p1629
I6904
sS'pleasantly'
p1630
I3206
sS'off'
p1631
I143
sS'ofr'
p1632
I5259
sS'command'
p1633
I3847
sS'350'
p1634
I3459
sS'audio'
p1635
I1531
sS'caramelized'
p1636
I4528
sS'2-person'
p1637
I6604
sS'less'
p1638
I131
sS'moments'
p1639
I3043
sS'premisis'
p1640
I6215
sS'somosas'
p1641
I6845
sS'rooms'
p1642
I6732
sS'unplugged'
p1643
I997
sS'web'
p1644
I776
sS'generous'
p1645
I2931
sS'winnie'
p1646
I6814
sS'crack'
p1647
I1873
sS'mannered'
p1648
I6734
sS'teriyaki'
p1649
I6096
sS'eateries'
p1650
I6117
sS'checking'
p1651
I1543
sS'smithsonian'
p1652
I3936
sS'increases'
p1653
I2343
sS'five'
p1654
I924
sS'margharita'
p1655
I6860
sS'desk'
p1656
I1968
sS'password'
p1657
I4174
sS'pies'
p1658
I7003
sS'emma'
p1659
I6688
sS'onion'
p1660
I4771
sS'chairs'
p1661
I6896
sS'garage'
p1662
I119
sS'become'
p1663
I1194
sS'replacement'
p1664
I471
sS'marketshare'
p1665
I1698
sS'choosing'
p1666
I1420
sS'thier'
p1667
I4689
sS'hissing'
p1668
I2411
sS'recognition'
p1669
I3223
sS'hipsters'
p1670
I5286
sS'jalapeno'
p1671
I5913
sS'literally'
p1672
I944
sS'avoid'
p1673
I2768
sS'fedex'
p1674
I4111
sS'does'
p1675
I44
sS'passion'
p1676
I4454
sS'forgiven'
p1677
I5619
sS'truffle'
p1678
I5337
sS'1920x1080'
p1679
I2914
sS'blowing'
p1680
I5315
sS'another--------lou'
p1681
I4013
sS'pressure'
p1682
I3801
sS'includes'
p1683
I2244
sS'adversary'
p1684
I2260
sS'vs.'
p1685
I4939
sS'stage'
p1686
I3323
sS'sister'
p1687
I1997
sS'lifestyle'
p1688
I3776
sS'union'
p1689
I5927
sS'appleworks'
p1690
I1359
sS'whistles'
p1691
I3633
sS'software'
p1692
I282
sS'letters'
p1693
I761
sS'sharpness'
p1694
I3050
sS'basmati'
p1695
I5944
sS'shoppe'
p1696
I4875
sS'mere'
p1697
I2664
sS'pairing'
p1698
I338
sS'caviar'
p1699
I5493
sS'spots'
p1700
I5482
sS'frustration'
p1701
I3236
sS'yrs'
p1702
I4067
sS'9.3'
p1703
I6771
sS'function'
p1704
I1280
sS'cosmopolitan'
p1705
I6834
sS'delivery'
p1706
I1108
sS'construction'
p1707
I1017
sS'delivers'
p1708
I613
sS'count'
p1709
I699
sS'packard'
p1710
I1034
sS'evident'
p1711
I4457
sS'official'
p1712
I6785
sS'smooth'
p1713
I1544
sS'convince'
p1714
I2888
sS'yuka'
p1715
I5107
sS'chipset'
p1716
I2380
sS'problem'
p1717
I139
sS'bearing'
p1718
I6282
sS'trattoria'
p1719
I5782
sS'recognize'
p1720
I1455
sS'slowing'
p1721
I2679
sS'ins'
p1722
I4686
sS'inn'
p1723
I5846
sS'ino'
p1724
I5529
sS'suan'
p1725
I4564
sS'compared'
p1726
I1026
sS'variety'
p1727
I4359
sS'hps'
p1728
I1914
sS'trials'
p1729
I3887
sS'photobook'
p1730
I5250
sS'8gig'
p1731
I2847
sS'compares'
p1732
I4006
sS'details'
p1733
I4063
sS'francisco'
p1734
I2416
sS'monday'
p1735
I6253
sS'again-'
p1736
I3421
sS'class'
p1737
I1153
sS'embracing'
p1738
I5573
sS'dismantle'
p1739
I1729
sS'chance'
p1740
I3715
sS'macconnection'
p1741
I969
sS'girlfiends'
p1742
I4681
sS'borderline'
p1743
I6483
sS'buon'
p1744
I6230
sS'lasted'
p1745
I2282
sS'rule'
p1746
I5145
sS'compete'
p1747
I3672
sS'use--'
p1748
I1774
sS'ciao'
p1749
I5416
sS'magnetic'
p1750
I1320
sS'saves'
p1751
I841
sS'mcbook'
p1752
I2554
sS'oldest'
p1753
I1961
sS'saved'
p1754
I1177
sS'chili'
p1755
I6241
sS'stinks'
p1756
I2758
sS'patsy'
p1757
I6724
sS'worth'
p1758
I391
sS'upload'
p1759
I3908
sS'comfortble'
p1760
I1020
sS'phones'
p1761
I1621
sS'sabbath'
p1762
I4226
sS'chef'
p1763
I4453
sS'7th'
p1764
I4134
sS'specs'
p1765
I2613
sS'machines'
p1766
I1318
sS'incompatible'
p1767
I3373
sS'+'
p1768
I1004
sS'lizard'
p1769
I4522
sS'reflectiveness'
p1770
I3915
sS'above'
p1771
I538
sS'suppose'
p1772
I5627
sS'told'
p1773
I502
sS'simultaneously'
p1774
I4076
sS'dreadful'
p1775
I5851
sS'interns'
p1776
I4927
sS'protection'
p1777
I840
sS'textured'
p1778
I1250
sS'celebration'
p1779
I5396
sS'obtained'
p1780
I6701
sS'kudos'
p1781
I6409
sS'daughter'
p1782
I851
sS'items'
p1783
I3051
sS'employees'
p1784
I2524
sS'usps'
p1785
I2149
sS'itunes'
p1786
I1193
sS'nv78'
p1787
I2030
sS'smoke'
p1788
I6426
sS'browsing'
p1789
I777
sS'surely'
p1790
I5643
sS'tirring'
p1791
I4154
sS'secure'
p1792
I3199
sS'angrily'
p1793
I2624
sS'charred'
p1794
I4527
sS'highly'
p1795
I93
sS'total'
p1796
I383
sS' <QUOTATION_MARK> '
p1797
I53
sS'negative'
p1798
I6167
sS'insult'
p1799
I904
sS'choosen'
p1800
I3464
sS'mightiest'
p1801
I4188
sS'bundled'
p1802
I95
sS'challah'
p1803
I6920
sS'lawns'
p1804
I4889
sS'croquette'
p1805
I5407
sS'award'
p1806
I6102
sS'aware'
p1807
I2335
sS'overcooking'
p1808
I6017
sS'authentically'
p1809
I5670
sS'pulitzer'
p1810
I5963
sS'word'
p1811
I778
sS'baluchi'
p1812
I4863
sS'presentation'
p1813
I70
sS'work'
p1814
I245
sS'era'
p1815
I3070
sS'elegantly'
p1816
I6533
sS'recipes'
p1817
I1756
sS'il'
p1818
I5829
sS'2.83'
p1819
I4082
sS'cited'
p1820
I2568
sS'india'
p1821
I5517
sS'cantonese'
p1822
I4750
sS'indifferent'
p1823
I3816
sS'recovery'
p1824
I791
sS'provide'
p1825
I3213
sS'mouse'
p1826
I236
sS'nuts'
p1827
I6208
sS'frites'
p1828
I5223
sS'uws'
p1829
I5610
sS'disappoint'
p1830
I5656
sS'ordinary'
p1831
I4562
sS'beach'
p1832
I4873
sS'pizza'
p1833
I4247
sS'lan'
p1834
I1797
sS'lad'
p1835
I5743
sS'after'
p1836
I144
sS'memorial'
p1837
I6122
sS'lay'
p1838
I5864
sS'lap'
p1839
I640
sS'chilled'
p1840
I4346
sS'......'
p1841
I3237
sS'appreciate'
p1842
I3527
sS'greet'
p1843
I4950
sS'green'
p1844
I4739
sS'waitress'
p1845
I4557
sS'fan'
p1846
I496
sS'order'
p1847
I658
sS'infested'
p1848
I4004
sS'office'
p1849
I333
sS'zen'
p1850
I6885
sS'satisfied'
p1851
I288
sS'innovative'
p1852
I5240
sS'japan'
p1853
I5774
sS'chronically'
p1854
I3796
sS'somewhere'
p1855
I3505
sS'avocado'
p1856
I6682
sS'production'
p1857
I3008
sS'understated'
p1858
I6259
sS'vents'
p1859
I1441
sS'carton'
p1860
I1661
sS'versus'
p1861
I3452
sS'then'
p1862
I40
sS'them'
p1863
I425
sS'affected'
p1864
I4432
sS'safe'
p1865
I1853
sS'break'
p1866
I224
sS'band'
p1867
I120
sS'bang'
p1868
I938
sS'they'
p1869
I135
sS'lifelong'
p1870
I2598
sS'bank'
p1871
I5398
sS'bread'
p1872
I4696
sS'reasonably'
p1873
I242
sS'l'
p1874
I4420
sS'rocks'
p1875
I2414
sS'reasonable'
p1876
I2399
sS'375'
p1877
I1761
sS'lifted'
p1878
I6296
sS'roxy'
p1879
I4900
sS'whining'
p1880
I6794
sS'spicing'
p1881
I6909
sS'network'
p1882
I1973
sS'hooked'
p1883
I949
sS'forty'
p1884
I3850
sS'remorse'
p1885
I5907
sS'unkempt'
p1886
I6216
sS'palak'
p1887
I6856
sS'forth'
p1888
I3676
sS'sliding'
p1889
I6029
sS'arties'
p1890
I5873
sS'standard'
p1891
I1869
sS'smacking'
p1892
I3344
sS'appointments'
p1893
I6727
sS'emachines'
p1894
I1654
sS'fixe'
p1895
I4757
sS'lollipop'
p1896
I6711
sS'certified'
p1897
I3109
sS'rarity'
p1898
I6056
sS'created'
p1899
I2918
sS'lousy'
p1900
I5112
sS'licked'
p1901
I4596
sS'chopped'
p1902
I6428
sS'organize'
p1903
I3588
sS'render'
p1904
I918
sS'another'
p1905
I959
sS'thick'
p1906
I2890
sS'electronic'
p1907
I1645
sS'rated'
p1908
I1996
sS'approximately'
p1909
I1247
sS'plentiful'
p1910
I5497
sS'john'
p1911
I4782
sS'dogs'
p1912
I1785
sS'grandchildren'
p1913
I1151
sS'wasted'
p1914
I1444
sS'mercy'
p1915
I2163
sS'glorified'
p1916
I5613
sS'hike'
p1917
I6515
sS'bindi'
p1918
I5094
sS'seated'
p1919
I4473
sS'preformed'
p1920
I3242
sS'garabage'
p1921
I3767
sS'iron'
p1922
I6705
sS'minus'
p1923
I3250
sS'mermaid'
p1924
I5845
sS'720p'
p1925
I2082
sS'vegatables'
p1926
I4493
sS'navigate'
p1927
I636
sS'pessimism'
p1928
I985
sS'flavorful'
p1929
I6391
sS'seltzer'
p1930
I4264
sS'unconcerned'
p1931
I250
sS'forced'
p1932
I588
sS'strength'
p1933
I5508
sS'genuine'
p1934
I6431
sS'burgers'
p1935
I6959
sS'convenient'
p1936
I2530
sS'latter'
p1937
I1513
sS'realy'
p1938
I763
sS'luxury'
p1939
I378
sS'neighborhood-'
p1940
I4765
sS'completed'
p1941
I2927
sS'programm'
p1942
I3535
sS'webcam'
p1943
I572
sS'800'
p1944
I1734
sS'neighborhoody'
p1945
I6420
sS'newcomers'
p1946
I6075
sS'yours'
p1947
I6003
sS'aunt'
p1948
I6879
sS'reserve'
p1949
I5806
sS'decidedly'
p1950
I5777
sS'brief'
p1951
I3725
sS'nephew'
p1952
I2436
sS'enjoyed'
p1953
I3687
sS'toast'
p1954
I4232
sS'41c'
p1955
I4035
sS'hrs'
p1956
I2538
sS'adequate'
p1957
I4944
sS'personality'
p1958
I5041
sS'do'
p1959
I46
sS'dj'
p1960
I5562
sS'df'
p1961
I6322
sS'de'
p1962
I1269
sS'dc'
p1963
I3582
sS'preferred'
p1964
I3777
sS'da'
p1965
I6889
sS'dv'
p1966
I3495
sS'nasty'
p1967
I1192
sS'scalini'
p1968
I5824
sS'runs'
p1969
I549
sS'covering'
p1970
I3277
sS'exchanged'
p1971
I3389
sS'lexington'
p1972
I5328
sS'nothingon'
p1973
I5338
sS'w/o'
p1974
I2169
sS'wannabe'
p1975
I6276
sS'steak'
p1976
I4316
sS'explanations'
p1977
I4991
sS'w/'
p1978
I3148
sS'lemonade'
p1979
I6979
sS'compresses'
p1980
I1722
sS'depends'
p1981
I7013
sS'mousing'
p1982
I3655
sS'horrendous'
p1983
I5831
sS'miserable'
p1984
I6330
sS'terrine'
p1985
I6587
sS'away'
p1986
I1374
sS'gentleman'
p1987
I7019
sS'unable'
p1988
I2829
sS'c2d'
p1989
I2492
sS'drawn'
p1990
I6310
sS'liht'
p1991
I3343
sS'clued'
p1992
I6399
sS'we'
p1993
I654
sS'terms'
p1994
I781
sS'wo'
p1995
I738
sS'shuizhu'
p1996
I5981
sS'handful'
p1997
I4256
sS'packaged'
p1998
I4766
sS'wi'
p1999
I3872
sS'wu'
p2000
I4540
sS'wt'
p2001
I3428
sS'disservice'
p2002
I903
sS'packages'
p2003
I1182
sS'kitchen'
p2004
I1757
sS'received'
p2005
I1894
sS'essentially'
p2006
I3450
sS'ill'
p2007
I4384
sS'hummus'
p2008
I6139
sS'brag'
p2009
I3653
sS'cod'
p2010
I5534
sS'requests'
p2011
I5565
sS'freshest'
p2012
I5279
sS'con'
p2013
I227
sS'tough'
p2014
I3399
sS'tons'
p2015
I2581
sS'tony'
p2016
I5718
sS'refill'
p2017
I6866
sS'heals'
p2018
I4025
sS'speak'
p2019
I1990
sS'trickery'
p2020
I2838
sS'lapdesk'
p2021
I1993
sS'refurbished'
p2022
I2592
sS'dozens'
p2023
I1142
sS'families'
p2024
I4732
sS'relaxing'
p2025
I5144
sS'concerning'
p2026
I6168
sS'catering'
p2027
I5211
sS'hoist'
p2028
I5173
sS'currys'
p2029
I6118
sS'gracious'
p2030
I5386
sS'east'
p2031
I1844
sS'air'
p2032
I2405
sS'voluminous'
p2033
I6125
sS'formatting'
p2034
I2504
sS'abrupt'
p2035
I2546
sS'virgnin'
p2036
I5325
sS'inspired'
p2037
I5740
sS'launched'
p2038
I2853
sS'mistake'
p2039
I1951
sS'cons'
p2040
I3743
sS'allows'
p2041
I633
sS'skipping'
p2042
I2390
sS'confirmed'
p2043
I3852
sS'descent'
p2044
I6562
sS'perform'
p2045
I1229
sS'greengrass'
p2046
I5134
sS'plates'
p2047
I5206
sS'wheel'
p2048
I2496
sS'independent'
p2049
I5553
sS'fuss'
p2050
I6543
sS'hang'
p2051
I1096
sS'evil'
p2052
I6522
sS'hand'
p2053
I3012
sS'insulating'
p2054
I2848
sS'someting'
p2055
I5513
sS'kept'
p2056
I1802
sS'hopping'
p2057
I4250
sS'parathas'
p2058
I6299
sS'humble'
p2059
I5584
sS'ths'
p2060
I2945
sS'kyle'
p2061
I2187
sS'udon'
p2062
I4653
sS'contact'
p2063
I479
sS'thh'
p2064
I5811
sS'the'
p2065
I14
sS'photobooth'
p2066
I118
sS'gods'
p2067
I2488
sS'farther'
p2068
I1364
sS'adding'
p2069
I1485
sS'family'
p2070
I894
sS'shout'
p2071
I5856
sS'belongs'
p2072
I3964
sS'board'
p2073
I712
sS'usable'
p2074
I4160
sS'boxed'
p2075
I1058
sS'mayo'
p2076
I6498
sS'jekyll'
p2077
I5466
sS'fusion'
p2078
I5137
sS'designers'
p2079
I2349
sS'5517'
p2080
I4145
sS'flavoring'
p2081
I6576
sS'sparse'
p2082
I6580
sS'night'
p2083
I10
sS'revisiting'
p2084
I4778
sS'antique'
p2085
I4549
sS'honored'
p2086
I1369
sS'sends'
p2087
I733
sS'oh'
p2088
I263
sS'hassle'
p2089
I1431
sS'jeffery'
p2090
I5503
sS'confusing'
p2091
I3866
sS'humor'
p2092
I6710
sS'purple'
p2093
I3468
sS'phenomenal'
p2094
I3956
sS'/'
p2095
I716
sS'asking'
p2096
I3001
sS'grabage'
p2097
I3360
sS'denied'
p2098
I3187
sS'marketing'
p2099
I6712
sS'post'
p2100
I2968
sS'diner'
p2101
I5048
sS'theirs'
p2102
I1641
sS'months'
p2103
I401
sS'dined'
p2104
I5481
sS'obv'
p2105
I6422
sS'octopus'
p2106
I5360
sS'wasting'
p2107
I3067
sS'bound'
p2108
I2782
sS'rendering'
p2109
I1402
sS'loin'
p2110
I6965
sS'wan'
p2111
I5924
sS'wal'
p2112
I1056
sS'fight'
p2113
I1978
sS'accordingly'
p2114
I3295
sS'quirks'
p2115
I1991
sS'way'
p2116
I279
sS'editions'
p2117
I3390
sS'innovators'
p2118
I6106
sS'was'
p2119
I251
sS'lowest'
p2120
I2619
sS'true'
p2121
I737
sS'reset'
p2122
I207
sS'responding'
p2123
I3009
sS'maximum'
p2124
I1600
sS'crystal'
p2125
I1188
sS'unusually'
p2126
I5994
sS'mesclun'
p2127
I5305
sS'mails'
p2128
I4128
sS'hotlines'
p2129
I2740
sS'expresso'
p2130
I6290
sS'computing'
p2131
I1317
sS'request'
p2132
I2986
sS'guessed'
p2133
I3151
sS'promised'
p2134
I2063
sS'mousepad'
p2135
I991
sS'physical'
p2136
I2060
sS'dying'
p2137
I998
sS'disloyal'
p2138
I6554
sS'topped'
p2139
I6249
sS'reality'
p2140
I665
sS'interested'
p2141
I3306
sS'holding'
p2142
I3859
sS'test'
p2143
I1324
sS'scored'
p2144
I3831
sS'welcome'
p2145
I3864
sS'update'
p2146
I527
sS'scores'
p2147
I3491
sS'dulce'
p2148
I6182
sS'together'
p2149
I284
sS'loyal'
p2150
I2850
sS'songs'
p2151
I705
sS'concept'
p2152
I4275
sS'switched'
p2153
I2281
sS'dance'
p2154
I5436
sS'macosx'
p2155
I3178
sS'battle'
p2156
I2266
sS'devoted'
p2157
I3347
sS'supposedly'
p2158
I3324
sS'zone'
p2159
I1806
sS'flash'
p2160
I2247
sS'gigs'
p2161
I2318
sS'compensate'
p2162
I6048
sS'dissatisfied'
p2163
I2131
sS'seemingly'
p2164
I2618
sS'pleasnt'
p2165
I6264
sS'trouble'
p2166
I652
sS'margarite'
p2167
I5232
sS'margarita'
p2168
I6780
sS'trifecta'
p2169
I3446
sS'presented'
p2170
I4882
sS'turns'
p2171
I1590
sS'gui'
p2172
I90
sS'suprised'
p2173
I5936
sS'p'
p2174
I1408
sS'soooo'
p2175
I3465
sS'guy'
p2176
I39
sS'upper'
p2177
I3876
sS'htc'
p2178
I1749
sS'regret'
p2179
I1867
sS'brava'
p2180
I6933
sS'bravo'
p2181
I6625
sS'discover'
p2182
I2277
sS'cost'
p2183
I508
sS'rough'
p2184
I2396
sS'nina'
p2185
I5075
sS'appear'
p2186
I2497
sS'heaviness'
p2187
I5512
sS'assistance'
p2188
I769
sS'shared'
p2189
I5732
sS'satisfy'
p2190
I2092
sS'basketful'
p2191
I5539
sS'downloaded'
p2192
I830
sS'hoops'
p2193
I2775
sS'teacher'
p2194
I3422
sS'change'
p2195
I1627
sS'sending'
p2196
I1835
sS'incoming'
p2197
I4375
sS'atomosphere'
p2198
I6439
sS'trial'
p2199
I2019
sS'usually'
p2200
I159
sS'e61'
p2201
I2213
sS'regardless'
p2202
I2805
sS'extra'
p2203
I260
sS'paragon'
p2204
I3209
sS'pony'
p2205
I4810
sS'rarely'
p2206
I630
sS'market'
p2207
I800
sS'flavors'
p2208
I5571
sS'buttons'
p2209
I1308
sS'super'
p2210
I1642
sS'live'
p2211
I2279
sS'wonderfully'
p2212
I3246
sS'unheralded'
p2213
I4408
sS'cuter'
p2214
I6196
sS'club'
p2215
I4649
sS'italian-'
p2216
I5172
sS'pumkin'
p2217
I4691
sS'graphic'
p2218
I1490
sS'defeats'
p2219
I4009
sS'car'
p2220
I1726
sS'trang'
p2221
I4720
sS'decker'
p2222
I6773
sS'incidents'
p2223
I3286
sS'can'
p2224
I243
sS'cam'
p2225
I1137
sS'cae'
p2226
I2593
sS'cad'
p2227
I2866
sS'spy'
p2228
I2719
sS'dedicated'
p2229
I2438
sS'december'
p2230
I3856
sS'chip'
p2231
I1551
sS'heard'
p2232
I2691
sS'hardrive'
p2233
I2268
sS'chin'
p2234
I6630
sS'exclude'
p2235
I801
sS'chic'
p2236
I1622
sS'reminded'
p2237
I6293
sS'spreads'
p2238
I4367
sS'freezes'
p2239
I623
sS'write'
p2240
I1237
sS'wonderfull'
p2241
I4017
sS'familiar'
p2242
I1007
sS'economy'
p2243
I2565
sS'product'
p2244
I683
sS'sp2'
p2245
I1523
sS'southern'
p2246
I6774
sS'unobtrusive'
p2247
I4701
sS'produce'
p2248
I5999
sS'occasionaly'
p2249
I1545
sS'compatibility'
p2250
I2786
sS'lifting'
p2251
I1967
sS"arn't"
p2252
I3592
sS'remember'
p2253
I2925
sS'whenever'
p2254
I2852
sS'candles'
p2255
I6873
sS'bean'
p2256
I5747
sS'ghz'
p2257
I1316
sS'yonkers'
p2258
I7025
sS'yahoo!mail'
p2259
I3888
sS'typical'
p2260
I5143
sS'approx'
p2261
I6033
sS'serving'
p2262
I5538
sS'indeed'
p2263
I4066
sS'manuf'
p2264
I1221
sS'displayed'
p2265
I3082
sS'ended'
p2266
I2056
sS'prosecco'
p2267
I4523
sS'still'
p2268
I160
sS'acknowledge'
p2269
I2789
sS'window'
p2270
I2766
sS'-touchpad'
p2271
I3708
sS'unaccommodating'
p2272
I4469
sS'non'
p2273
I2206
sS'ddr3'
p2274
I2651
sS'244dx'
p2275
I4103
sS'ddr5'
p2276
I2650
sS'tails'
p2277
I6692
sS'scalina'
p2278
I6292
sS'half'
p2279
I661
sS'not'
p2280
I45
sS'nov'
p2281
I2031
sS'now'
p2282
I347
sS'hall'
p2283
I5297
sS'nor'
p2284
I1624
sS'lies'
p2285
I4611
sS'january'
p2286
I3955
sS'drop'
p2287
I1165
sS'outrageously'
p2288
I5563
sS'entirely'
p2289
I1655
sS'prompted'
p2290
I1394
sS'challenged'
p2291
I1440
sS'ed'
p2292
I6369
sS'yeah'
p2293
I741
sS'wrap'
p2294
I5796
sS'fires'
p2295
I1753
sS'year'
p2296
I662
sS'happen'
p2297
I688
sS'avoided'
p2298
I6631
sS'shown'
p2299
I2571
sS'opened'
p2300
I2205
sS'space'
p2301
I1892
sS'furthermore'
p2302
I6790
sS'increase'
p2303
I660
sS'navigating'
p2304
I2072
sS'shows'
p2305
I1252
sS'cart'
p2306
I5865
sS'lugging'
p2307
I1889
sS'unwanted'
p2308
I5083
sS'marine'
p2309
I6312
sS'card'
p2310
I511
sS'care'
p2311
I1602
sS'fixed'
p2312
I1170
sS'selections'
p2313
I4917
sS'transition'
p2314
I2033
sS'honest'
p2315
I2785
sS'promotion'
p2316
I2553
sS'warning'
p2317
I1795
sS'suffice'
p2318
I1458
sS'appettite'
p2319
I6608
sS'xl'
p2320
I427
sS'omitted'
p2321
I2228
sS'comprised'
p2322
I6905
sS'directly'
p2323
I440
sS'reppative'
p2324
I3636
sS'impossible'
p2325
I2264
sS'xp'
p2326
I880
sS'tomorrow'
p2327
I6999
sS"'em"
p2328
I5491
sS'size'
p2329
I1205
sS'sheer'
p2330
I3480
sS'checked'
p2331
I2772
sS'meetball'
p2332
I7023
sS'caught'
p2333
I1078
sS'apple-'
p2334
I768
sS'remotely'
p2335
I2452
sS'frame'
p2336
I2040
sS'friend'
p2337
I1626
sS'x.'
p2338
I1262
sS'mostly'
p2339
I1163
sS'that'
p2340
I114
sS'appreciates'
p2341
I6371
sS'eliminates'
p2342
I4000
sS'x3'
p2343
I3717
sS'thai'
p2344
I4331
sS'than'
p2345
I132
sS'x4'
p2346
I6865
sS'greenwood'
p2347
I6065
sS'restaraurant'
p2348
I7034
sS'gobs'
p2349
I940
sS'apples'
p2350
I1087
sS'fruits'
p2351
I5046
sS'sublime'
p2352
I5634
sS'browser'
p2353
I540
sS'angel'
p2354
I5166
sS'remained'
p2355
I6284
sS'slaw'
p2356
I4647
sS'bugs'
p2357
I1834
sS'recovey'
p2358
I2912
sS'delis'
p2359
I4834
sS'anger'
p2360
I3255
sS'lumpy'
p2361
I6512
sS'offering'
p2362
I4336
sS'manufacturers'
p2363
I2479
sS'terrific'
p2364
I1117
sS'equipment'
p2365
I1417
sS'online'
p2366
I947
sS'2big'
p2367
I1732
sS'd620'
p2368
I3297
sS'begin'
p2369
I3331
sS'price'
p2370
I429
sS'importantly'
p2371
I1938
sS'pricy'
p2372
I6991
sS'america'
p2373
I4835
sS']'
p2374
I2939
sS'forever'
p2375
I346
sS'flawlessly'
p2376
I1605
sS'izakaya'
p2377
I4821
sS'egg'
p2378
I5140
sS'hurley'
p2379
I4822
sS'steady'
p2380
I155
sS'nortell'
p2381
I2721
sS'sunset'
p2382
I6745
sS'professional'
p2383
I1718
sS'typically'
p2384
I2440
sS'mains'
p2385
I4659
sS'spyware'
p2386
I3127
sS'discovered'
p2387
I1553
sS'molars'
p2388
I5443
sS'maine'
p2389
I5695
sS'cheeseburgers'
p2390
I6961
sS'ground'
p2391
I1582
sS'upgrade'
p2392
I397
sS'ratio'
p2393
I1884
sS'title'
p2394
I6261
sS'40pp'
p2395
I4774
sS'texture'
p2396
I4215
sS'only'
p2397
I172
sS'essence'
p2398
I5712
sS'pastrami'
p2399
I4980
sS'truly'
p2400
I1416
sS'bagles'
p2401
I4985
sS'mulino'
p2402
I5830
sS'celebrate'
p2403
I4286
sS'lollies'
p2404
I6600
sS'leather'
p2405
I4167
sS'seldom'
p2406
I5153
sS'husband'
p2407
I1012
sS'flatly'
p2408
I3718
sS'concern'
p2409
I52
sS'palette'
p2410
I6436
sS'crawfish'
p2411
I4612
sS'3'
p2412
I977
sS'between'
p2413
I1581
sS'import'
p2414
I1663
sS'whipped'
p2415
I6758
sS'conferencing'
p2416
I3232
sS'notice'
p2417
I5583
sS'blame'
p2418
I1656
sS'-no'
p2419
I317
sS'article'
p2420
I3706
sS'pixels'
p2421
I3875
sS'warhol'
p2422
I6639
sS'installation'
p2423
I1097
sS'enabling'
p2424
I814
sS'pray'
p2425
I1595
sS'comex'
p2426
I1751
sS'pureed'
p2427
I5807
sS'comes'
p2428
I583
sS'nearby'
p2429
I4532
sS"spec'd"
p2430
I3149
sS'lacie'
p2431
I1731
sS'jeans'
p2432
I5105
sS'dispatch'
p2433
I3999
sS'learning'
p2434
I1264
sS'moreover'
p2435
I5564
sS'cares'
p2436
I1207
sS'skew'
p2437
I5603
sS'informed'
p2438
I1143
sS'cared'
p2439
I5919
sS'superfine'
p2440
I3678
sS'aero'
p2441
I3758
sS'2,400'
p2442
I3663
sS'reallythe'
p2443
I1630
sS'external'
p2444
I235
sS'foggy'
p2445
I6204
sS'ruby'
p2446
I5322
sS'disapeared'
p2447
I828
sS'these'
p2448
I208
sS'chinatown'
p2449
I4807
sS'editorial'
p2450
I5060
sS'bias'
p2451
I3739
sS'stickers'
p2452
I5079
sS'floating'
p2453
I5605
sS'worry'
p2454
I739
sS'pastas'
p2455
I4942
sS'media'
p2456
I2084
sS'food'
p2457
I3381
sS'document'
p2458
I1454
sS'finish'
p2459
I4335
sS'thunderbolt'
p2460
I2241
sS'foam'
p2461
I1995
sS'fruit'
p2462
I3477
sS'favorites'
p2463
I4758
sS'complained'
p2464
I663
sS'theater'
p2465
I4426
sS'daytona'
p2466
I4872
sS'charges'
p2467
I3546
sS'charger'
p2468
I586
sS'breezy'
p2469
I6318
sS'breeze'
p2470
I3473
sS'puree'
p2471
I4802
sS'oreganta'
p2472
I5939
sS'charged'
p2473
I876
sS'heaps'
p2474
I3625
sS'knowledgeable'
p2475
I934
sS'touch'
p2476
I229
sS'speed'
p2477
I285
sS'death'
p2478
I3210
sS'thinking'
p2479
I1635
sS'desktop'
p2480
I1014
sS'9:30'
p2481
I6789
sS'treatment'
p2482
I5056
sS'instructions'
p2483
I3147
sS'real'
p2484
I2548
sS'spectacular'
p2485
I3667
sS'read'
p2486
I1236
sS'amd'
p2487
I1227
sS'early'
p2488
I1390
sS'overlooks'
p2489
I6756
sS'avchd'
p2490
I919
sS'listening'
p2491
I4990
sS'using'
p2492
I145
sS'execution'
p2493
I4456
sS'lady'
p2494
I2877
sS'fortune'
p2495
I5203
sS'margheritta'
p2496
I5690
sS'pounds'
p2497
I954
sS'greeting'
p2498
I5013
sS'panchetta'
p2499
I5801
sS't'
p2500
I1413
sS'fully'
p2501
I2043
sS'output'
p2502
I1271
sS'irriplaceable'
p2503
I4048
sS'vegtables'
p2504
I5598
sS'apologists'
p2505
I3218
sS'exposed'
p2506
I3772
sS'intend'
p2507
I6456
sS'payed'
p2508
I1146
sS'atmoshere'
p2509
I5992
sS'manhatten'
p2510
I6951
sS'forks'
p2511
I6138
sS'wheat'
p2512
I5653
sS'business'
p2513
I365
sS'asap'
p2514
I2122
sS'sixth'
p2515
I5292
sS'chefs'
p2516
I4260
sS'seine'
p2517
I6542
sS'leftover'
p2518
I3770
sS'exciting'
p2519
I3543
sS'throw'
p2520
I2489
sS'cheff'
p2521
I5459
sS'comparison'
p2522
I973
sS'central'
p2523
I5928
sS'chop'
p2524
I5251
sS'greatly'
p2525
I3646
sS'chow'
p2526
I6025
sS'intalling'
p2527
I4045
sS'backup'
p2528
I806
sS'processor'
p2529
I185
sS'researching'
p2530
I2575
sS'heated'
p2531
I666
sS'your'
p2532
I509
sS'stare'
p2533
I2932
sS'prepare'
p2534
I6457
sS'area'
p2535
I232
sS'removing'
p2536
I4762
sS'start'
p2537
I102
sS'cats'
p2538
I6334
sS'low'
p2539
I1407
sS'liang'
p2540
I4541
sS'lox'
p2541
I4983
sS'you-'
p2542
I6893
sS'drains'
p2543
I942
sS'delayed'
p2544
I4484
sS'curiously'
p2545
I5431
sS'omelet'
p2546
I4235
sS'trying'
p2547
I434
sS'hottest'
p2548
I6671
sS'dominican'
p2549
I6684
sS'default'
p2550
I1275
sS'bucket'
p2551
I3879
sS'gibberish'
p2552
I1838
sS'persoal'
p2553
I3267
sS'600'
p2554
I2688
sS'describe'
p2555
I6511
sS'moved'
p2556
I3675
sS'sales'
p2557
I54
sS'reliability'
p2558
I2192
sS'yon'
p2559
I6402
sS'unwelcome'
p2560
I4504
sS'edibility'
p2561
I5943
sS'storage'
p2562
I1446
sS'valid'
p2563
I3106
sS'core2'
p2564
I4081
sS'you'
p2565
I191
sS'forcing'
p2566
I602
sS'poor'
p2567
I1578
sS'peak'
p2568
I5502
sS'unattractive'
p2569
I6463
sS'restraunt'
p2570
I7026
sS'building'
p2571
I4627
sS'9800'
p2572
I2978
sS'stringy'
p2573
I4616
sS'monte'
p2574
I6858
sS':-'
p2575
I2690
sS'month'
p2576
I532
sS'ceased'
p2577
I2790
sS'messy'
p2578
I4078
sS'mascarpone'
p2579
I7016
sS' '
p2580
I469
sS'icons'
p2581
I3867
sS'-i'
p2582
I1470
sS'dumpling'
p2583
I5358
sS'dinnertime'
p2584
I5798
sS'congee'
p2585
I4444
sS'fountain'
p2586
I5404
sS'very'
p2587
I96
sS'decide'
p2588
I2408
sS'frankenstein'
p2589
I6717
sS'securely'
p2590
I2119
sS'acers'
p2591
I3153
sS'heaven'
p2592
I5205
sS'--'
p2593
I2616
sS'manager'
p2594
I1927
sS'-5'
p2595
I4032
sS'-4'
p2596
I3367
sS'steakhouse'
p2597
I4281
sS'typers'
p2598
I2832
sS'cookies'
p2599
I3120
sS'streets'
p2600
I5853
sS'nearing'
p2601
I6254
sS'switchable'
p2602
I1933
sS'casual'
p2603
I1070
sS'toshibas'
p2604
I1160
sS'investing'
p2605
I2044
sS'apologized'
p2606
I3515
sS'scallops'
p2607
I5262
sS'learned'
p2608
I3761
sS'3.00'
p2609
I6658
sS'loose'
p2610
I2285
sS'answers'
p2611
I6501
sS'tracks'
p2612
I6321
sS'uneven'
p2613
I4450
sS'sardines'
p2614
I5275
sS'strong'
p2615
I3069
sS'--eat'
p2616
I4813
sS'ahead'
p2617
I1633
sS'vegetarian'
p2618
I5391
sS'losses'
p2619
I4142
sS'exceptionally'
p2620
I2814
sS'amount'
p2621
I1113
sS'heartbroken'
p2622
I3385
sS'invalidate'
p2623
I2001
sS'ilife'
p2624
I1259
sS'mamoun'
p2625
I5997
sS'requiring'
p2626
I474
sS'virgins'
p2627
I6946
sS'aimed'
p2628
I3721
sS'trained'
p2629
I4707
sS'chunks'
p2630
I6721
sS'flaws'
p2631
I388
sS'takes'
p2632
I1443
sS'almost'
p2633
I595
sS'warrentys'
p2634
I1371
sS'taken'
p2635
I2096
sS'cheescake'
p2636
I5950
sS'yuck'
p2637
I5158
sS'neapolitan'
p2638
I6069
sS'excuse'
p2639
I5655
sS'broke'
p2640
I1839
sS'hurry'
p2641
I5103
sS'quicklook'
p2642
I3624
sS'grill'
p2643
I2901
sS'a++'
p2644
I4966
sS'nine'
p2645
I2588
sS'history'
p2646
I3733
sS'pushed'
p2647
I2887
sS'phrase'
p2648
I7040
sS'hamburgers'
p2649
I6928
sS'processors'
p2650
I1691
sS'chops'
p2651
I6246
sS'utilize'
p2652
I3330
sS'mcds'
p2653
I4622
sS'unlucky'
p2654
I1588
sS'menus'
p2655
I5835
sS'tried'
p2656
I396
sS'rude'
p2657
I4623
sS'communicating'
p2658
I2659
sS'tries'
p2659
I3339
sS'fe'
p2660
I6427
sS'fi'
p2661
I3873
sS'fl'
p2662
I4874
sS'fm'
p2663
I1273
sS'a'
p2664
I25
sS'criticize'
p2665
I7052
sS'mezz'
p2666
I6224
sS'documentation'
p2667
I4141
sS'pho'
p2668
I5597
sS'overnight'
p2669
I3514
sS'anytime'
p2670
I1126
sS'negligible'
p2671
I629
sS'chopsticks'
p2672
I4386
sS'breads'
p2673
I5254
sS'dream'
p2674
I3327
sS'uninstall'
p2675
I2830
sS'photoshop'
p2676
I2136
sS'help'
p2677
I377
sS'sooo'
p2678
I5300
sS'soon'
p2679
I1552
sS"y'"
p2680
I3817
sS'held'
p2681
I1214
sS'thermal'
p2682
I3216
sS'hell'
p2683
I3208
sS'dummies'
p2684
I4164
sS'kardon'
p2685
I3855
sS'actually'
p2686
I1977
sS'systems'
p2687
I694
sS'friendliest'
p2688
I5742
sS'fool'
p2689
I7001
sS'evening'
p2690
I4278
sS'yo'
p2691
I5257
sS'ya'
p2692
I4463
sS'2yrs'
p2693
I2351
sS'ye'
p2694
I4542
sS'vomit'
p2695
I5156
sS'starbucks'
p2696
I3638
sS'foot'
p2697
I5809
sS'yr'
p2698
I6593
sS'foos'
p2699
I6967
sS'sundays'
p2700
I3489
sS'occasions'
p2701
I2818
sS'ex.iphoto'
p2702
I2314
sS'capability'
p2703
I2552
sS'prolems'
p2704
I1596
sS'stopped'
p2705
I587
sS'referred'
p2706
I4583
sS'heavy'
p2707
I1287
sS'columbia'
p2708
I6348
sS'beyond'
p2709
I1895
sS'event'
p2710
I5346
sS'unsurpassed'
p2711
I6302
sS'definintely'
p2712
I6157
sS'crapy'
p2713
I2078
sS'since'
p2714
I409
sS'safety'
p2715
I3054
sS'7'
p2716
I297
sS'issue'
p2717
I320
sS'ass'
p2718
I6202
sS'drink'
p2719
I5159
sS'bass'
p2720
I4511
sS'story'
p2721
I2077
sS'pub'
p2722
I5468
sS'reason'
p2723
I929
sS'base'
p2724
I1210
sS'put'
p2725
I1323
sS'hapless'
p2726
I4069
sS'launch'
p2727
I1926
sS'terrible'
p2728
I1623
sS'terribly'
p2729
I5631
sS'american'
p2730
I446
sS'expecting'
p2731
I335
sS'knots'
p2732
I4538
sS'knocking'
p2733
I5737
sS'reflected'
p2734
I3600
sS'portioned'
p2735
I5341
sS'miss'
p2736
I4277
sS'horse'
p2737
I1102
sS'wonderful'
p2738
I647
sS'hundred'
p2739
I375
sS'banana'
p2740
I4668
sS'rewired'
p2741
I3583
sS'selling'
p2742
I1313
sS'tft'
p2743
I2336
sS'translation'
p2744
I6340
sS'steaks'
p2745
I4638
sS'gret'
p2746
I5438
sS'financing'
p2747
I1987
sS'grew'
p2748
I892
sS'kindly'
p2749
I6871
sS'   '
p2750
I1717
sS'-managed'
p2751
I3622
sS'toward'
p2752
I5462
sS'entranceway'
p2753
I5129
sS'sty'
p2754
I4705
sS'shirts'
p2755
I5793
sS'syncing'
p2756
I344
sS'juicy'
p2757
I5019
sS'randomly'
p2758
I1687
sS'juice'
p2759
I3275
sS'substantial'
p2760
I5501
sS'sentences'
p2761
I2230
sS'sensual'
p2762
I6446
sS'lid'
p2763
I1128
sS'lie'
p2764
I1461
sS'u.s'
p2765
I2566
sS'lit'
p2766
I4087
sS'lip'
p2767
I5902
sS'useless'
p2768
I133
sS'langostine'
p2769
I6568
sS'caliber'
p2770
I6917
sS'macs'
p2771
I1152
sS'kai'
p2772
I4895
sS'experiences'
p2773
I1479
sS'eaten'
p2774
I4255
sS'watt'
p2775
I3099
sS'approved'
p2776
I3992
sS'sturdy'
p2777
I1086
sS'mobile'
p2778
I1620
sS'clear'
p2779
I1189
sS'popularity'
p2780
I5608
sS'rockefeller'
p2781
I6624
sS'clean'
p2782
I1969
sS'latest'
p2783
I1422
sS'blend'
p2784
I6171
sS'celebrities'
p2785
I6093
sS'with-'
p2786
I3443
sS'labtops'
p2787
I3507
sS'northern'
p2788
I5644
sS'pretty'
p2789
I161
sS'circle'
p2790
I3532
sS'palets'
p2791
I6460
sS'meanwhile'
p2792
I5805
sS'grocery'
p2793
I5912
sS'famous'
p2794
I4598
sS'feels'
p2795
I981
sS'competing'
p2796
I6124
sS'combinations'
p2797
I5401
sS'during'
p2798
I1750
sS'catches'
p2799
I3408
sS'catcher'
p2800
I6819
sS'perfume'
p2801
I4254
sS'sacrifices'
p2802
I3320
sS'paella'
p2803
I5535
sS'recommendations'
p2804
I6032
sS'hype'
p2805
I5889
sS'x'
p2806
I2300
sS'courteous'
p2807
I5785
sS'seventeen'
p2808
I3579
sS'close'
p2809
I2286
sS'locals'
p2810
I5165
sS'patties'
p2811
I5849
sS'horrid'
p2812
I6882
sS'pictures'
p2813
I854
sS'wow'
p2814
I4352
sS'3-course'
p2815
I5151
sS'probably'
p2816
I720
sS'meatsauce'
p2817
I6380
sS'missing'
p2818
I1292
sS'both'
p2819
I617
sS'useable'
p2820
I2099
sS'8:30'
p2821
I6656
sS'fiance'
p2822
I1132
sS'sensitive'
p2823
I2886
sS'eggplant'
p2824
I4670
sS'forgotten'
p2825
I4546
sS'vault'
p2826
I5061
sS'protector'
p2827
I1319
sS'liked'
p2828
I1462
sS'battery'
p2829
I21
sS'whatever'
p2830
I2087
sS'likes'
p2831
I5146
sS'linux'
p2832
I1652
sS'vessel'
p2833
I6719
sS'described'
p2834
I5028
sS'add'
p2835
I1052
sS'damn'
p2836
I1730
sS'empty'
p2837
I4327
sS'lived'
p2838
I3308
sS'partly'
p2839
I5581
sS'imac'
p2840
I805
sS'else'
p2841
I1120
sS'recalled'
p2842
I3198
sS'argentinian'
p2843
I6830
sS'customers'
p2844
I905
sS'look'
p2845
I554
sS'dusty'
p2846
I4120
sS'while'
p2847
I168
sS'accidently'
p2848
I3167
sS'smart'
p2849
I1880
sS'loop'
p2850
I1583
sS'pack'
p2851
I1608
sS'overlooked'
p2852
I4718
sS'faired'
p2853
I6092
sS'phonecalls'
p2854
I4138
sS'harddrives'
p2855
I3083
sS'skype'
p2856
I1974
sS'ready'
p2857
I512
sS'8:00'
p2858
I4818
sS'grand'
p2859
I1984
sS'throughput'
p2860
I2458
sS'used'
p2861
I345
sS'temporary'
p2862
I1745
sS'fatty'
p2863
I6248
sS'ratings'
p2864
I3161
sS'bonus'
p2865
I354
sS'uses'
p2866
I807
sS'user'
p2867
I1212
sS'assortment'
p2868
I5035
sS'bellying'
p2869
I770
sS'overated'
p2870
I5991
sS'15.4'
p2871
I2742
sS'15.6'
p2872
I1307
sS'older'
p2873
I1289
sS'obviously'
p2874
I1384
sS'consistency'
p2875
I4785
sS'calcutta'
p2876
I6389
sS'junking'
p2877
I3046
sS'yankees'
p2878
I5005
sS'powering'
p2879
I3350
sS'760'
p2880
I5076
sS'technicians'
p2881
I4116
sS'quarters'
p2882
I5226
sS'roasted'
p2883
I5221
sS'dissappointed'
p2884
I1534
sS'taiwan'
p2885
I5639
sS'praying'
p2886
I2655
sS'hotpot'
p2887
I6985
sS'presentaion'
p2888
I5602
sS'$'
p2889
I570
sS'cemetery'
p2890
I6066
sS'schoolwork'
p2891
I1638
sS'remaining'
p2892
I2610
sS'...'
p2893
I620
sS'march'
p2894
I3229
sS'lacking'
p2895
I2692
sS'showing'
p2896
I6760
sS'game'
p2897
I311
sS'damage'
p2898
I1242
sS'18000'
p2899
I4058
sS'translucent'
p2900
I5900
sS'signal'
p2901
I4093
sS'translates'
p2902
I3168
sS'eel'
p2903
I5698
sS'macbooks'
p2904
I209
sS'popular'
p2905
I4018
sS's5934'
p2906
I564
sS'resold'
p2907
I1060
sS'domincan'
p2908
I6530
sS'trendi'
p2909
I4545
sS'creation'
p2910
I4019
sS'some'
p2911
I431
sS'pricetag'
p2912
I1030
sS'towards'
p2913
I2706
sS'escargot'
p2914
I5104
sS'trendy'
p2915
I2637
sS'delivered'
p2916
I2062
sS'eater'
p2917
I5536
sS'minimal'
p2918
I1028
sS'measures'
p2919
I5312
sS'eating'
p2920
I4199
sS'rub'
p2921
I5432
sS'processing'
p2922
I821
sS'step'
p2923
I2863
sS'assists'
p2924
I1418
sS'lasts'
p2925
I3538
sS'orrechiete'
p2926
I4207
sS'abroad'
p2927
I5764
sS'shine'
p2928
I3212
sS'homesick'
p2929
I5728
sS'hinge'
p2930
I849
sS'idk'
p2931
I3424
sS'classics'
p2932
I6015
sS'shiny'
p2933
I987
sS'block'
p2934
I1815
sS'seeing'
p2935
I1488
sS'within'
p2936
I476
sS'tofu'
p2937
I6474
sS'nonsense'
p2938
I5087
sS'dissatisfaction'
p2939
I3553
sS'rolls'
p2940
I3158
sS'insides'
p2941
I4755
sS'consistancy'
p2942
I2393
sS'..'
p2943
I2373
sS'eventhough'
p2944
I5723
sS'heritage'
p2945
I4767
sS'.1'
p2946
I2420
sS'eons'
p2947
I5527
sS'nb305'
p2948
I2911
sS'healthful'
p2949
I5088
sS'inept'
p2950
I1700
sS'comouter'
p2951
I2045
sS'paneer'
p2952
I5204
sS'properly'
p2953
I306
sS'newer'
p2954
I398
sS'crapped'
p2955
I701
sS'dull'
p2956
I5976
sS'info'
p2957
I3659
sS'intuitive'
p2958
I695
sS'restarted'
p2959
I3963
sS'....'
p2960
I1954
sS'accustomed'
p2961
I4399
sS'similar'
p2962
I3154
sS'noone'
p2963
I3545
sS'ordered'
p2964
I1175
sS'reopening'
p2965
I3341
sS'hafe'
p2966
I2121
sS'objection'
p2967
I3807
sS'hint'
p2968
I6430
sS'accross'
p2969
I2577
sS'nar'
p2970
I5744
sS'application'
p2971
I2856
sS'transport'
p2972
I2757
sS'department'
p2973
I1368
sS'dv4'
p2974
I28
sS'manhattan'
p2975
I4333
sS'shanghainese'
p2976
I4806
sS'smiles'
p2977
I6052
sS'draw'
p2978
I6174
sS'propmtly'
p2979
I6984
sS'drag'
p2980
I1164
sS'graphically'
p2981
I2652
sS'reservation'
p2982
I4481
sS'knishes'
p2983
I6922
sS'urged'
p2984
I6158
sS'e'
p2985
I1409
sS'practically'
p2986
I3771
sS'zooming'
p2987
I4129
sS'dvd'
p2988
I1477
sS'outing'
p2989
I6614
sS'required'
p2990
I205
sS'youtube'
p2991
I3493
sS'svc'
p2992
I5464
sS'heats'
p2993
I928
sS"she's"
p2994
I6195
sS'underrated'
p2995
I6337
sS'requires'
p2996
I1799
sS'katz'
p2997
I4837
sS'desserts'
p2998
I5002
sS'gb'
p2999
I1823
sS'go'
p3000
I589
sS'compact'
p3001
I456
sS'eurotrashy'
p3002
I5556
sS'suits'
p3003
I5630
sS'culinary'
p3004
I5736
sS'cluttered'
p3005
I3865
sS'friendly'
p3006
I1463
sS'pinnacles'
p3007
I4452
sS'g4'
p3008
I1381
sS'bustling'
p3009
I6432
sS'facebook'
p3010
I853
sS'telling'
p3011
I4152
sS'sastifying'
p3012
I6120
sS'button'
p3013
I2203
sS'8.95'
p3014
I5848
sS'assignments'
p3015
I4047
sS'blurry'
p3016
I3454
sS'boots'
p3017
I1075
sS'jump'
p3018
I2774
sS'redone'
p3019
I6162
sS'booth'
p3020
I1905
sS'picked'
p3021
I1267
sS'download'
p3022
I704
sS'click'
p3023
I1782
sS'sausage'
p3024
I4208
sS'plays'
p3025
I6777
sS'soup'
p3026
I4652
sS'sangria'
p3027
I4715
sS'cell'
p3028
I129
sS'evoked'
p3029
I6266
sS'yuzu'
p3030
I6272
sS'experiece'
p3031
I1648
sS'focused'
p3032
I3540
sS'pancake'
p3033
I5980
sS'win7'
p3034
I3787
sS'yellowfun'
p3035
I6126
sS'convert'
p3036
I2506
sS'haunts'
p3037
I4246
sS'products'
p3038
I424
sS'win'
p3039
I3785
sS'manage'
p3040
I865
sS'gimmick'
p3041
I6821
sS'wiz'
p3042
I1511
sS'technologically'
p3043
I2673
sS'crap'
p3044
I1985
sS'remains'
p3045
I5530
sS'hudson'
p3046
I4890
sS'camera'
p3047
I1222
sS'cheeky'
p3048
I6452
sS'crab'
p3049
I4439
sS'cram'
p3050
I6482
sS'expressway'
p3051
I6064
sS'popped'
p3052
I3059
sS'1/2'
p3053
I1098
sS'started'
p3054
I584
sS'becomes'
p3055
I1383
sS'charming'
p3056
I5629
sS'whisks'
p3057
I6541
sS'starter'
p3058
I1780
sS'salad'
p3059
I4312
sS'ride'
p3060
I5064
sS'donut'
p3061
I5965
sS'extrmely'
p3062
I6753
sS'acually'
p3063
I3957
sS'servants'
p3064
I5884
sS'dhosas'
p3065
I6847
sS'meet'
p3066
I1614
sS'painless'
p3067
I343
sS'control'
p3068
I1881
sS'kenny'
p3069
I6812
sS'pulling'
p3070
I1788
sS'acousitcs'
p3071
I6881
sS'hesitate'
p3072
I1109
sS'defective'
p3073
I2118
sS'vibe'
p3074
I4272
sS'located'
p3075
I5453
sS'fare'
p3076
I4460
sS'entree'
p3077
I5081
sS'system/'
p3078
I3142
sS'scoop'
p3079
I6262
sS'bakery'
p3080
I5418
sS'agenda'
p3081
I6764
sS'ottimo'
p3082
I5663
sS'ummmmm'
p3083
I6693
sS'soggy'
p3084
I5032
sS'citysearch'
p3085
I5059
sS'including'
p3086
I435
sS'mentioned'
p3087
I4094
sS'converting'
p3088
I3266
sS'fromager'
p3089
I5819
sS'masses'
p3090
I6672
sS'notebooks'
p3091
I2069
sS'banquet'
p3092
I7027
sS'filets'
p3093
I6163
sS'pixel'
p3094
I2735
sS'frontal'
p3095
I1438
sS'hands'
p3096
I992
sS'front'
p3097
I1311
sS'guaranteeed'
p3098
I5114
sS'handy'
p3099
I1467
sS'masters'
p3100
I5578
sS'risotto'
p3101
I6927
sS'university'
p3102
I4189
sS'slide'
p3103
I3020
sS'mode'
p3104
I836
sS'female'
p3105
I6175
sS'700'
p3106
I3596
sS'bluetooth'
p3107
I842
sS'exceeded'
p3108
I454
sS'separating'
p3109
I6731
sS'maximum*.'
p3110
I2617
sS'special'
p3111
I955
sS'entertainment'
p3112
I4149
sS'fathom'
p3113
I2516
sS'strokes'
p3114
I6779
sS'versitility'
p3115
I3024
sS'flamable'
p3116
I3812
sS'unda'
p3117
I6962
sS'wines'
p3118
I4475
sS'reacts'
p3119
I4085
sS'attending'
p3120
I2354
sS'completely'
p3121
I372
sS'ridge'
p3122
I6825
sS'hostile'
p3123
I6767
sS'route'
p3124
I3441
sS'ask'
p3125
I1744
sS'timer'
p3126
I815
sS'keep'
p3127
I361
sS'margaritas'
p3128
I6918
sS'vegetables'
p3129
I5055
sS'mad'
p3130
I2992
sS'powerful'
p3131
I2115
sS'bootcamp'
p3132
I1604
sS'improving'
p3133
I2693
sS'warcraft'
p3134
I3245
sS'realizwed'
p3135
I3190
sS'precisely'
p3136
I4639
sS'quality'
p3137
I87
sS'management'
p3138
I1468
sS'privacy'
p3139
I2722
sS'durable'
p3140
I1877
sS'pavillion'
p3141
I1812
sS'adopted'
p3142
I6911
sS'herky'
p3143
I5483
sS'touristy'
p3144
I4989
sS'wrapped'
p3145
I5843
sS'perfectly'
p3146
I1533
sS'aprehensive'
p3147
I3115
sS'prone'
p3148
I3618
sS'configure'
p3149
I2105
sS'exactly'
p3150
I1414
sS'updating'
p3151
I3363
sS'eeepc'
p3152
I1826
sS'reprecutions'
p3153
I2397
sS'bed'
p3154
I4022
sS'cravings'
p3155
I5729
sS'6th'
p3156
I3500
sS'sq'
p3157
I5932
sS'bet'
p3158
I5406
sS'drunk'
p3159
I6968
sS'dowtown'
p3160
I5419
sS'esposito'
p3161
I5665
sS'lightly'
p3162
I6070
sS'tabs'
p3163
I2413
sS'p.s'
p3164
I5979
sS'stike'
p3165
I6643
sS'need'
p3166
I839
sS'assurances'
p3167
I2906
sS'screw'
p3168
I3362
sS'microphone'
p3169
I3616
sS'heaped'
p3170
I6952
sS'able'
p3171
I445
sS'aftermarket'
p3172
I1711
sS'purchasing'
p3173
I422
sS'impecable'
p3174
I5810
sS'instance'
p3175
I3348
sS'relatives'
p3176
I2660
sS'sprinkled'
p3177
I5898
sS'grounding'
p3178
I1579
sS'truck'
p3179
I2654
sS'lectures'
p3180
I3890
sS'depanable'
p3181
I1808
sS'expires'
p3182
I1158
sS'camper'
p3183
I901
sS'connected'
p3184
I305
sS'lectured'
p3185
I6357
sS'achilles'
p3186
I6673
sS'awe'
p3187
I3567
sS'expired'
p3188
I503
sS'gallery'
p3189
I5347
sS'conversations'
p3190
I4114
sS'tutoring'
p3191
I2920
sS'upset'
p3192
I3032
sS'parsipanny'
p3193
I7028
sS'astonishing'
p3194
I3880
sS'se'
p3195
I6206
sS'affair'
p3196
I5715
sS'qualms'
p3197
I6085
sS'indoor'
p3198
I6891
sS'anyway'
p3199
I2002
sS'parked'
p3200
I5074
sS'samosa'
p3201
I5757
sS'envy'
p3202
I4099
sS'based'
p3203
I1653
sS'winner'
p3204
I3062
sS'brighter'
p3205
I1223
sS'employed'
p3206
I2186
sS'achieve'
p3207
I192
sS'slows'
p3208
I3723
sS'michigan'
p3209
I2446
sS'overall'
p3210
I706
sS'sipping'
p3211
I6875
sS'joint'
p3212
I4273
sS'buyer'
p3213
I1055
sS'kong'
p3214
I6804
sS'endless'
p3215
I3590
sS'gray'
p3216
I1304
sS'processes'
p3217
I1484
sS'processer'
p3218
I3000
sS'places'
p3219
I963
sS'gras'
p3220
I6586
sS'grat'
p3221
I6739
sS'she'
p3222
I1171
sS'contain'
p3223
I2463
sS'grab'
p3224
I3841
sS'terrace'
p3225
I4389
sS'inovated'
p3226
I5458
sS'operates'
p3227
I2547
sS'computer'
p3228
I37
sS'powder'
p3229
I5899
sS'operated'
p3230
I3384
sS'nightmare'
p3231
I1628
sS'horribly'
p3232
I4088
sS'tend'
p3233
I3763
sS'written'
p3234
I4769
sS'correctly'
p3235
I252
sS'horrible'
p3236
I685
sS'tens'
p3237
I1451
sS'neither'
p3238
I5918
sS'joya'
p3239
I4752
sS'comparable'
p3240
I2329
sS'importance'
p3241
I1669
sS'key'
p3242
I759
sS'approval'
p3243
I3414
sS'thank'
p3244
I682
sS'hits'
p3245
I4954
sS'buttah'
p3246
I5330
sS'career'
p3247
I5126
sS'presentations'
p3248
I2325
sS'admit'
p3249
I3825
sS'jersey'
p3250
I5716
sS'cordial'
p3251
I6577
sS'modle'
p3252
I3940
sS'tuesday'
p3253
I5875
sS'together-'
p3254
I3259
sS'erased'
p3255
I3488
sS'quit'
p3256
I626
sS'addition'
p3257
I3697
sS'prelude'
p3258
I5369
sS'balsamic'
p3259
I5642
sS'sara'
p3260
I5568
sS'thanked'
p3261
I6443
sS'slowly'
p3262
I994
sS'1/10th'
p3263
I3129
sS'shoulders'
p3264
I537
sS'controlled'
p3265
I3917
sS'mc373ll'
p3266
I3524
sS'releasing'
p3267
I3254
sS'baroanda'
p3268
I5555
sS'controller'
p3269
I2623
sS'ours'
p3270
I5647
sS'kicks'
p3271
I1809
sS'caprese'
p3272
I5701
sS'brunch'
p3273
I4761
sS'garmin'
p3274
I1061
sS'recomends'
p3275
I6963
sS'candlevery'
p3276
I6932
sS'harder'
p3277
I3906
sS'chalk'
p3278
I6537
sS'owns'
p3279
I6534
sS'coddled'
p3280
I6665
sS'2,300'
p3281
I3898
sS'repair*-visited'
p3282
I3352
sS'resident'
p3283
I5975
sS'saet'
p3284
I7030
sS'surface'
p3285
I1251
sS'10:15pm'
p3286
I6097
sS'examined'
p3287
I2567
sS'swinging'
p3288
I4591
sS'bucks'
p3289
I1858
sS'goodfellas'
p3290
I6411
sS'generic'
p3291
I3893
sS'began'
p3292
I1639
sS'campus'
p3293
I2167
sS'parts'
p3294
I2943
sS'speaker'
p3295
I2190
sS'eclectic'
p3296
I4853
sS'party'
p3297
I3418
sS'omakase'
p3298
I6366
sS'unconventional'
p3299
I6471
sS'effect'
p3300
I3244
sS'nightly'
p3301
I546
sS'frequently'
p3302
I1689
sS'impeccable'
p3303
I4700
sS'transaction'
p3304
I970
sS'reflection'
p3305
I6526
sS'i'
p3306
I6
sS'well'
p3307
I389
sS'delictable'
p3308
I5923
sS'drone'
p3309
I3781
sS'cashew'
p3310
I6207
sS'accurate'
p3311
I4405
sS'dosa'
p3312
I4354
sS'mistaken'
p3313
I2979
sS'freshmess'
p3314
I4491
sS'virtual'
p3315
I4178
sS'advertised'
p3316
I2370
sS'effeciency'
p3317
I3907
sS'drive'
p3318
I157
sS'knish'
p3319
I6189
sS'vids'
p3320
I580
sS'accomodate'
p3321
I5160
sS'kick'
p3322
I4710
sS'sonic'
p3323
I3322
sS'devised'
p3324
I722
sS'crushed'
p3325
I4933
sS'fats'
p3326
I5588
sS'historic'
p3327
I6703
sS'immediately'
p3328
I594
sS'loss'
p3329
I2996
sS'necessary'
p3330
I1675
sS'lost'
p3331
I531
sS'sizes'
p3332
I2736
sS'qosmio'
p3333
I1676
sS'fingerprints'
p3334
I1253
sS'roti'
p3335
I4828
sS'roth'
p3336
I4283
sS'5hrs'
p3337
I2027
sS'lose'
p3338
I1908
sS'page'
p3339
I827
sS'warmed'
p3340
I6180
sS'glare'
p3341
I4026
sS'library'
p3342
I3395
sS'repeat'
p3343
I386
sS'warmer'
p3344
I5679
sS'glary'
p3345
I1790
sS'home'
p3346
I223
sS'liking'
p3347
I1213
sS'peter'
p3348
I5228
sS'sitdown'
p3349
I3885
sS'broad'
p3350
I2054
sS'rasberry'
p3351
I5264
sS'reaching'
p3352
I6977
sS'zabars'
p3353
I5132
sS'expansion'
p3354
I1727
sS'5-years'
p3355
I3296
sS'videocard'
p3356
I2723
sS'compatible'
p3357
I2226
sS'toppings'
p3358
I5345
sS'pastries'
p3359
I6571
sS'celebrations'
p3360
I5409
sS'final'
p3361
I2303
sS'previously'
p3362
I2350
sS'washington'
p3363
I6861
sS'mushrooms'
p3364
I5261
sS'times-'
p3365
I5014
sS'bombay'
p3366
I5366
sS'networking'
p3367
I3119
sS'additional'
p3368
I1208
sS'unresolvable'
p3369
I951
sS'whom'
p3370
I4894
sS'gruppo'
p3371
I6683
sS'noticed'
p3372
I390
sS'receipt'
p3373
I2987
sS'aunthentic'
p3374
I5348
sS'hr'
p3375
I2067
sS'hs'
p3376
I823
sS'hp'
p3377
I26
sS'ht'
p3378
I3747
sS'hh'
p3379
I6528
sS'effects-'
p3380
I2075
sS'beat'
p3381
I772
sS'ha'
p3382
I3905
sS'eat'
p3383
I4204
sS'hd'
p3384
I356
sS'he'
p3385
I976
sS'lloovve'
p3386
I6236
sS'control+alt+delete'
p3387
I1882
sS'hosting'
p3388
I3026
sS'converted'
p3389
I4056
sS'limit'
p3390
I1922
sS'macboook'
p3391
I3526
sS'piece'
p3392
I1219
sS'display'
p3393
I1099
sS'catch'
p3394
I3645
sS'reservations'
p3395
I4441
sS'universal'
p3396
I4109
sS'penny'
p3397
I393
sS'functions'
p3398
I1619
sS'ingredients'
p3399
I4233
sS'offensive'
p3400
I4624
sS'pacifico'
p3401
I4593
sS'star'
p3402
I2910
sS'stay'
p3403
I304
sS'foie'
p3404
I6585
sS'friends'
p3405
I486
sS'samsung'
p3406
I2988
sS'blogs'
p3407
I3626
sS'portion'
p3408
I724
sS'lives'
p3409
I2210
sS'indirectly'
p3410
I3730
sS'secondly'
p3411
I4251
sS'sichuan'
p3412
I4543
sS'straws'
p3413
I3702
sS'asian'
p3414
I4961
sS'captain'
p3415
I4579
sS'fronts'
p3416
I6916
sS'presents'
p3417
I3354
sS'bays'
p3418
I3369
sS'swap'
p3419
I3433
sS'teaching'
p3420
I2388
sS'sorry'
p3421
I696
sS'updated'
p3422
I525
sS'chennai'
p3423
I5870
sS'connects'
p3424
I3394
sS'updates'
p3425
I1947
sS'affect'
p3426
I3055
sS'vast'
p3427
I883
sS'strayed'
p3428
I6255
sS'companies'
p3429
I1706
sS'solution'
p3430
I2364
sS'convenience'
p3431
I2441
sS'unrelated'
p3432
I2868
sS'5850'
p3433
I2649
sS'enhance'
p3434
I5434
sS'heading'
p3435
I2705
sS'carnivore'
p3436
I4363
sS'force'
p3437
I625
sS'japanese'
p3438
I5096
sS'likely'
p3439
I1577
sS'llast'
p3440
I3729
sS'wintermelon'
p3441
I6013
sS'even'
p3442
I108
sS'gawky'
p3443
I5070
sS'lights'
p3444
I6975
sS'haze'
p3445
I6781
sS'nex'
p3446
I6295
sS'yonah'
p3447
I6923
sS'new'
p3448
I590
sS'net'
p3449
I1957
sS'ever'
p3450
I408
sS'evolving'
p3451
I3869
sS'screams'
p3452
I1678
sS'pancakes'
p3453
I5354
sS'never'
p3454
I216
sS'drew'
p3455
I2916
sS'met'
p3456
I453
sS'active'
p3457
I2412
sS'100'
p3458
I571
sS'dry'
p3459
I4391
sS'expedited'
p3460
I3501
sS'credit'
p3461
I510
sS'whatnot'
p3462
I1376
sS'plea'
p3463
I3499
sS'slices'
p3464
I5208
sS'tatin'
p3465
I6148
sS'schooling'
p3466
I2355
sS'sliced'
p3467
I5651
sS'moral'
p3468
I2689
sS'guests'
p3469
I4376
sS'overheat'
p3470
I103
sS'watering'
p3471
I5355
sS'quibbles'
p3472
I5310
sS'call'
p3473
I930
sS'calm'
p3474
I6133
sS'recommend'
p3475
I485
sS'type'
p3476
I982
sS'tell'
p3477
I1837
sS'posting'
p3478
I6403
sS'wary'
p3479
I5841
sS'warn'
p3480
I6455
sS'warm'
p3481
I628
sS'ware'
p3482
I2720
sS'room'
p3483
I2681
sS'2.66'
p3484
I3317
sS'setup'
p3485
I439
sS'roof'
p3486
I4925
sS'spec'
p3487
I1546
sS'movies'
p3488
I920
sS'root'
p3489
I5585
sS'vodka'
p3490
I6980
sS'fresher'
p3491
I6078
sS'give'
p3492
I1344
sS'programming'
p3493
I2532
sS'foods'
p3494
I4580
sS'quail'
p3495
I6166
sS'performace'
p3496
I659
sS'pogo'
p3497
I3485
sS'confit'
p3498
I6584
sS'sata'
p3499
I2622
sS'amazing'
p3500
I566
sS'sate'
p3501
I5727
sS'harkens'
p3502
I6001
sS'answer'
p3503
I1746
sS'faulty'
p3504
I2974
sS'replacing'
p3505
I1665
sS'loyalty'
p3506
I4565
sS'balthazar'
p3507
I6549
sS'royce'
p3508
I3159
sS'purchase'
p3509
I561
sS'attempt'
p3510
I2395
sS'anymore'
p3511
I1883
sS'third'
p3512
I2097
sS'recieved'
p3513
I3353
sS'maintain'
p3514
I6956
sS'frequent'
p3515
I5188
sS'ethernet'
p3516
I1162
sS'operate'
p3517
I3156
sS'operations'
p3518
I2194
sS'mcaffe'
p3519
I3555
sS'murray'
p3520
I4544
sS'keyboard'
p3521
I319
sS'responsive'
p3522
I1071
sS'fellas'
p3523
I6034
sS'before'
p3524
I275
sS'<START>'
p3525
I3
sS'personal'
p3526
I578
sS'untrendy'
p3527
I6557
sS','
p3528
I5771
sS'crew'
p3529
I5186
sS'better'
p3530
I732
sS'differently'
p3531
I6043
sS'discharges'
p3532
I2784
sS'weeks'
p3533
I604
sS'overcome'
p3534
I3903
sS'pleasurable'
p3535
I5248
sS'combination'
p3536
I2257
sS'downs'
p3537
I2739
sS'within2'
p3538
I1351
sS'glazed'
p3539
I5641
sS'downright'
p3540
I6046
sS'specialty'
p3541
I6681
sS'meat'
p3542
I4829
sS'brightness'
p3543
I3895
sS'panini'
p3544
I5037
sS'roast'
p3545
I4803
sS'went'
p3546
I642
sS'side'
p3547
I290
sS'bone'
p3548
I4414
sS'luck'
p3549
I748
sS'adobe'
p3550
I1491
sS'durability'
p3551
I3829
sS'57th'
p3552
I6006
sS'milan'
p3553
I5069
sS'taught'
p3554
I2135
sS'forgot'
p3555
I3533
sS'classmates'
p3556
I1713
sS'enclosure'
p3557
I214
sS'restricted'
p3558
I3337
sS'dime'
p3559
I394
sS'kinoko'
p3560
I5738
sS'volare'
p3561
I5039
sS'reader'
p3562
I1094
sS'surprise'
p3563
I3416
sS'grease'
p3564
I6465
sS'turning'
p3565
I1507
sS'resume'
p3566
I3790
sS'backlit'
p3567
I318
sS'greasy'
p3568
I5147
sS'aisle'
p3569
I6374
sS'logging'
p3570
I1508
sS'starts'
p3571
I3174
sS'ish'
p3572
I6579
sS'moving'
p3573
I4015
sS'loud'
p3574
I495
sS'laggy'
p3575
I2795
sS'vittorio'
p3576
I5185
sS'features'
p3577
I113
sS'grade'
p3578
I1715
sS'hook'
p3579
I1693
sS'downside'
p3580
I2053
sS'<UNK>'
p3581
I1
sS'spinach'
p3582
I5985
sS'girls'
p3583
I4536
sS'intall'
p3584
I3827
sS'twenties'
p3585
I3288
sS'machined'
p3586
I3768
sS'bouncing'
p3587
I2921
sS'typing'
p3588
I891
sS'atmoshpere'
p3589
I6331
sS'somewhat'
p3590
I1296
sS'outisde'
p3591
I4628
sS'lenovo'
p3592
I3429
sS'keyword'
p3593
I1449
sS'raucus'
p3594
I5196
sS'anniversery'
p3595
I4725
sS'enabled'
p3596
I3325
sS'preparation'
p3597
I6113
sS'matter'
p3598
I1080
sS'street'
p3599
I4629
sS'rosario'
p3600
I4878
sS'spoiled'
p3601
I543
sS'mini'
p3602
I2255
sS'modern'
p3603
I3072
sS'mind'
p3604
I1129
sS'mine'
p3605
I911
sS'ginger'
p3606
I4805
sS'ergonomics'
p3607
I3818
sS'seen'
p3608
I2109
sS'seem'
p3609
I687
sS'mint'
p3610
I5265
sS'tells'
p3611
I1512
sS'gabriela'
p3612
I4200
sS'niece'
p3613
I2435
sS'consomme'
p3614
I5586
sS'lightscribe'
p3615
I4028
sS'wrists'
p3616
I2474
sS'mashed'
p3617
I6169
sS'regular'
p3618
I1887
sS'inconsistency'
p3619
I6104
sS'maria'
p3620
I2418
sS'don'
p3621
I3431
sS'm'
p3622
I979
sS'dog'
p3623
I1667
sS'doe'
p3624
I3463
sS'points'
p3625
I4920
sS'consumer'
p3626
I2156
sS'beaten'
p3627
I5676
sS'visitor'
p3628
I5189
sS'attempts'
p3629
I433
sS'liberty'
p3630
I4893
sS'weekends'
p3631
I2862
sS'sugar'
p3632
I4526
sS'folks'
p3633
I4184
sS'folder'
p3634
I671
sS'disconnecting'
p3635
I1888
sS'wearing'
p3636
I6611
sS'colorful'
p3637
I4753
sS'stop'
p3638
I1044
sS'appetizer'
p3639
I4349
sS'edamames'
p3640
I7050
sS'tiled'
p3641
I4632
sS'reviewed'
p3642
I3959
sS'comply'
p3643
I3361
sS'earn'
p3644
I1202
sS'bar'
p3645
I2743
sS'bay'
p3646
I4165
sS'reload'
p3647
I1928
sS'bad'
p3648
I316
sS'discs'
p3649
I792
sS'architecture'
p3650
I5521
sS'favors'
p3651
I6601
sS'grilled'
p3652
I4411
sS'counters'
p3653
I4633
sS'attest'
p3654
I3336
sS'decides'
p3655
I1909
sS'fluffy'
p3656
I4615
sS'testing'
p3657
I730
sS'decided'
p3658
I1329
sS'reviewer'
p3659
I4812
sS'said'
p3660
I41
sS'09'
p3661
I1841
sS'slighly'
p3662
I6417
sS'sorts'
p3663
I3351
sS'winblows'
p3664
I2854
sS'lazy'
p3665
I4964
sS'triples'
p3666
I4781
sS'wears'
p3667
I1363
sS'nosiy'
p3668
I5320
sS'weary'
p3669
I3200
sS'modeling'
p3670
I5125
sS'suggested'
p3671
I4660
sS'resistant'
p3672
I1186
sS'against'
p3673
I2734
sS'bleecker'
p3674
I6941
sS'5870'
p3675
I3145
sS'sophia'
p3676
I4337
sS'casimir'
p3677
I6851
sS'uni'
p3678
I5694
sS'typist'
p3679
I2885
sS'lanterna'
p3680
I5680
sS'appeared'
p3681
I2253
sS'loaded'
p3682
I1593
sS'tasted'
p3683
I4914
sS'proceeded'
p3684
I4867
sS'particulary'
p3685
I5010
sS'asks'
p3686
I2998
sS'basis'
p3687
I4535
sS'frist'
p3688
I5895
sS'three'
p3689
I1336
sS'tiny'
p3690
I1217
sS'commission'
p3691
I6487
sS'basic'
p3692
I2125
sS'basil'
p3693
I5199
sS'entered'
p3694
I6084
sS'lovely'
p3695
I3595
sS'threw'
p3696
I4947
sS'website'
p3697
I622
sS'mushroom'
p3698
I5469
sS'tapping'
p3699
I1033
sS'personally'
p3700
I2770
sS'kamasutra'
p3701
I6833
sS'regretted'
p3702
I2956
sS'160'
p3703
I5833
sS'161'
p3704
I5957
sS'exception'
p3705
I2730
sS'tastes'
p3706
I4531
sS'near'
p3707
I452
sS'melted'
p3708
I4784
sS'neat'
p3709
I3863
sS'balance'
p3710
I860
sS'study'
p3711
I2726
sS'seven'
p3712
I953
sS'hunan'
p3713
I7002
sS'seved'
p3714
I5834
sS'is'
p3715
I58
sS'sushi'
p3716
I4299
sS'it'
p3717
I8
sS'ii'
p3718
I2828
sS'shame'
p3719
I1699
sS'cans'
p3720
I4636
sS'in'
p3721
I75
sS'seattle'
p3722
I6524
sS'ie'
p3723
I4075
sS'if'
p3724
I553
sS'grown'
p3725
I5425
sS'bottles'
p3726
I4635
sS'overpack'
p3727
I5661
sS'make'
p3728
I233
sS'bella'
p3729
I5417
sS'potentially'
p3730
I449
sS'belly'
p3731
I5316
sS'vegetable'
p3732
I5794
sS'colonies'
p3733
I7047
sS'bells'
p3734
I3632
sS'meets'
p3735
I293
sS'bearded'
p3736
I5281
sS'i3'
p3737
I3881
sS'stressed'
p3738
I5122
sS'i5'
p3739
I182
sS'i7'
p3740
I184
sS'delight'
p3741
I5115
sS'garlic'
p3742
I4537
sS'thoughts'
p3743
I2000
sS'butter'
p3744
I6172
sS'programs'
p3745
I1495
sS'settled'
p3746
I6364
sS'failing'
p3747
I3264
sS'berate'
p3748
I4868
sS'materials'
p3749
I1499
sS'qualities'
p3750
I6867
sS'claims'
p3751
I521
sS'smoked'
p3752
I5090
sS'investments'
p3753
I3603
sS'left'
p3754
I1828
sS'protocol'
p3755
I3184
sS'just'
p3756
I336
sS'yea'
p3757
I3010
sS'sporting'
p3758
I3926
sS'somethings'
p3759
I6233
sS'hotspot'
p3760
I5525
sS'human'
p3761
I1385
sS'yes'
p3762
I869
sS'yet'
p3763
I610
sS'buyers'
p3764
I1517
sS'brassiere'
p3765
I6548
sS'legion'
p3766
I6074
sS'defrag'
p3767
I1566
sS'character'
p3768
I5523
sS'potential'
p3769
I5705
sS'save'
p3770
I462
sS'trimming'
p3771
I2898
sS'scatty'
p3772
I5618
sS'boasted'
p3773
I3121
sS'creatively'
p3774
I5784
sS'discreet'
p3775
I6449
sS'background'
p3776
I2070
sS'destroy'
p3777
I3135
sS'performing'
p3778
I2747
sS'manual'
p3779
I3504
sS'unnecessary'
p3780
I237
sS'notorious'
p3781
I5593
sS'unexplored'
p3782
I3205
sS'deal'
p3783
I889
sS'somehow'
p3784
I1084
sS'dead'
p3785
I2263
sS'platters'
p3786
I7055
sS'paragraphs'
p3787
I3572
sS'amiable'
p3788
I6560
sS'shapes'
p3789
I1002
sS'carts'
p3790
I6219
sS'maitre'
p3791
I4485
sS'hollondaise'
p3792
I4763
sS'slurry'
p3793
I6384
sS'carte'
p3794
I6376
sS'satalite'
p3795
I766
sS'thephone'
p3796
I1703
sS'tartar'
p3797
I4447
sS'burn'
p3798
I1898
sS'eee'
p3799
I2904
sS'keeper'
p3800
I3630
sS'80-gigabyte'
p3801
I1549
sS'chilean'
p3802
I4768
sS'inedible'
p3803
I5255
sS'ribs'
p3804
I4929
sS'valentines'
p3805
I6243
sS'unibody'
p3806
I2359
sS'afternoon'
p3807
I4572
sS'automatically'
p3808
I1565
sS'definetely'
p3809
I5703
sS'thinner'
p3810
I6079
sS'managers'
p3811
I4127
sS'tastier'
p3812
I6000
sS'parsing'
p3813
I1450
sS'down'
p3814
I307
sS'slurp'
p3815
I4324
sS'amsterdam'
p3816
I1743
sS'refined'
p3817
I4482
sS'orsay'
p3818
I5082
sS'amazingly'
p3819
I1695
sS'initial'
p3820
I3300
sS'inspected'
p3821
I3994
sS'bukhara'
p3822
I4382
sS'editor'
p3823
I6004
sS'brunch-'
p3824
I6892
sS'form'
p3825
I1870
sS'failure'
p3826
I679
sS'bengali'
p3827
I4772
sS' <HYPHEN> '
p3828
I29
sS'eastsider'
p3829
I5669
sS'pavilion'
p3830
I27
sS'streaming'
p3831
I2780
sS'attached'
p3832
I2120
sS'bounds'
p3833
I1632
sS'sapphire'
p3834
I4394
sS'delete'
p3835
I758
sS'sticks'
p3836
I3374
sS'classic'
p3837
I4477
sS'toss'
p3838
I2550
sS'covers'
p3839
I2801
sS'sticky'
p3840
I4617
sS'tarnished'
p3841
I1575
sS'fashioned'
p3842
I4982
sS'ship'
p3843
I2402
sS'shit'
p3844
I2317
sS'marinated'
p3845
I5940
sS'vista'
p3846
I885
sS'alerts'
p3847
I2672
sS'generally'
p3848
I1088
sS'handed'
p3849
I2937
sS'digital'
p3850
I3472
sS'warehouse'
p3851
I4169
sS'roomier'
p3852
I5894
sS'dies'
p3853
I2764
sS'felt'
p3854
I2466
sS'diet'
p3855
I6263
sS'fell'
p3856
I618
sS'russe'
p3857
I6907
sS'pizzas'
p3858
I4462
sS'weekend'
p3859
I4851
sS'died'
p3860
I582
sS'happening'
p3861
I1599
sS'apology'
p3862
I4932
sS'potato'
p3863
I6350
sS'jackel'
p3864
I6743
sS'daily'
p3865
I3016
sS'overdue'
p3866
I4936
sS'shop'
p3867
I60
sS'managed'
p3868
I1598
sS'skip'
p3869
I12
sS'cougars'
p3870
I5290
sS'mild'
p3871
I2822
sS'mile'
p3872
I4393
sS'skin'
p3873
I2845
sS'leche'
p3874
I6183
sS'mill'
p3875
I6385
sS'milk'
p3876
I5045
sS'anticipation'
p3877
I2431
sS'yummy'
p3878
I3683
sS'technique'
p3879
I6368
sS'father'
p3880
I1677
sS'disgusting'
p3881
I5550
sS'0'
p3882
I2556
sS'finally'
p3883
I171
sS'unpleasant'
p3884
I5993
sS'marks'
p3885
I6536
sS'suffered'
p3886
I1134
sS'smartphone'
p3887
I2990
sS'tends'
p3888
I313
sS'advised'
p3889
I677
sS'forked'
p3890
I2949
sS'dim'
p3891
I4779
sS'staples'
p3892
I1705
sS'did'
p3893
I403
sS'die'
p3894
I1885
sS'bukit'
p3895
I3802
sS'accidentally'
p3896
I3571
sS'specials'
p3897
I4339
sS'item'
p3898
I2973
sS'excellence'
p3899
I5034
sS'dip'
p3900
I4385
sS'round'
p3901
I5191
sS'unexpected'
p3902
I2709
sS'villa'
p3903
I6508
sS'seasoning'
p3904
I5023
sS'dealing'
p3905
I3780
sS'run'
p3906
I627
sS'gnocchi'
p3907
I7046
sS'afghanistan'
p3908
I3231
sS'adds'
p3909
I4073
sS'imagined'
p3910
I2919
sS'fillet'
p3911
I5749
sS'deficiencies'
p3912
I4194
sS'suspect'
p3913
I7005
sS'dimsum'
p3914
I6632
sS'filled'
p3915
I4358
sS'ms'
p3916
I2018
sS'mussels'
p3917
I4308
sS'-)if'
p3918
I2537
sS'appetites'
p3919
I6192
sS'french'
p3920
I4419
sS'congestion'
p3921
I5123
sS'wait'
p3922
I1739
sS'box'
p3923
I1373
sS'boy'
p3924
I264
sS'battling'
p3925
I3437
sS'shift'
p3926
I3517
sS'shooter'
p3927
I3476
sS'exemplifies'
p3928
I6115
sS'suggestion'
p3929
I329
sS'conveniently'
p3930
I4648
sS'taipei'
p3931
I4400
sS'genuinely'
p3932
I5241
sS'teenage'
p3933
I110
sS'useful'
p3934
I1735
sS'14.95'
p3935
I6565
sS'merely'
p3936
I3445
sS'flexibility'
p3937
I2042
sS'everybody'
p3938
I6842
sS'pere'
p3939
I4424
sS'flatline'
p3940
I3814
sS'sake'
p3941
I4365
sS'pluses'
p3942
I2710
sS'visit'
p3943
I844
sS'france'
p3944
I6707
sS'connector'
p3945
I1155
sS'creamy'
p3946
I4787
sS'ahhh'
p3947
I7049
sS'pasaro'
p3948
I2139
sS'thru'
p3949
I1135
sS'sharing'
p3950
I5635
sS'acceptable'
p3951
I3601
sS'downtown'
p3952
I4276
sS'upgradable'
p3953
I2685
sS'rigid'
p3954
I6886
sS'olive'
p3955
I5326
sS'effort'
p3956
I921
sS'malai'
p3957
I5795
sS'fly'
p3958
I3396
sS'soud'
p3959
I1770
sS'tokyo'
p3960
I5127
sS'soul'
p3961
I4070
sS'reviews'
p3962
I2157
sS'wallet'
p3963
I943
sS'sour'
p3964
I6492
sS'caserole'
p3965
I6992
sS'growing'
p3966
I5349
sS'making'
p3967
I779
sS'arrive'
p3968
I5008
sS'claim'
p3969
I2569
sS'crazy'
p3970
I1763
sS'confused'
p3971
I5484
sS'sample'
p3972
I4212
sS'shorting'
p3973
I1125
sS'pink'
p3974
I4809
sS'nonchalant'
p3975
I6797
sS'ping'
p3976
I5099
sS'nyu'
p3977
I4749
sS'till'
p3978
I3434
sS'sunday'
p3979
I5560
sS'pure'
p3980
I340
sS'swore'
p3981
I644
sS'firfox'
p3982
I1092
sS'nyc'
p3983
I4395
sS'may'
p3984
I267
sS'max'
p3985
I795
sS'mac'
p3986
I334
sS'designed'
p3987
I693
sS"eye'd"
p3988
I2352
sS'mai'
p3989
I5760
sS'guys'
p3990
I3506
sS'grow'
p3991
I1959
sS'man'
p3992
I3983
sS'maybe'
p3993
I601
sS'tapas'
p3994
I5270
sS'exterminator'
p3995
I6798
sS'switch'
p3996
I1464
sS'deposit'
p3997
I6223
sS'talk'
p3998
I342
sS'cute'
p3999
I4288
sS'gradual'
p4000
I3469
sS'pointed'
p4001
I1341
sS'spreadsheets'
p4002
I3186
sS'stability'
p4003
I2620
sS'yapper'
p4004
I3765
sS'shake'
p4005
I5978
sS'nolita'
p4006
I5768
sS'pointer'
p4007
I3982
sS'group'
p4008
I3972
sS'monitor'
p4009
I357
sS'sripraphai'
p4010
I5816
sS'perrrrrrrrrfect'
p4011
I5649
sS'interesting'
p4012
I1398
sS'policy'
p4013
I2971
sS'mail'
p4014
I2148
sS'main'
p4015
I1982
sS'nb305-n410bl'
p4016
I67
sS'tonic'
p4017
I4790
sS'bein'
p4018
I2267
sS'killer'
p4019
I89
sS'lunch'
p4020
I4342
sS'applecare'
p4021
I2864
sS'touching'
p4022
I2871
sS'safari'
p4023
I1089
sS'settings'
p4024
I2107
sS'z"bottom'
p4025
I2011
sS'rock'
p4026
I3748
sS'x12'
p4027
I3939
sS'costed'
p4028
I2090
sS'girl'
p4029
I2708
sS'summary'
p4030
I1421
sS'living'
p4031
I2680
sS'gamers'
p4032
I2555
sS'3rd'
p4033
I648
sS'bday'
p4034
I7014
sS'stupid'
p4035
I2636
sS'pizzeria'
p4036
I5909
sS'correct'
p4037
I463
sS'assurance'
p4038
I796
sS'earlier'
p4039
I4051
sS'monster'
p4040
I3580
sS'walnuts'
p4041
I6902
sS'california'
p4042
I2878
sS'bloatware'
p4043
I1594
sS'advance'
p4044
I3550
sS'language'
p4045
I3172
sS'waiter'
p4046
I4937
sS'headphones'
p4047
I2936
sS'thing'
p4048
I142
sS'funky'
p4049
I4571
sS'mozzilla'
p4050
I1091
sS'think'
p4051
I542
sS'waited'
p4052
I1423
sS'first'
p4053
I254
sS'exotic'
p4054
I5778
sS'cheese'
p4055
I4234
sS'itthe'
p4056
I4064
sS'fast'
p4057
I555
sS'overheating'
p4058
I1347
sS'carry'
p4059
I674
sS'sounds'
p4060
I2233
sS'cheesy'
p4061
I5318
sS'little'
p4062
I79
sS'murky'
p4063
I6313
sS'anyone'
p4064
I745
sS'speaking'
p4065
I539
sS'eyes'
p4066
I362
sS'inefficient'
p4067
I941
sS'-apparently'
p4068
I3268
sS'12-$15'
p4069
I5995
sS'40times'
p4070
I6109
sS'kamikaze'
p4071
I6410
sS'undoubtedly'
p4072
I6438
sS'11'
p4073
I2103
sS'10'
p4074
I773
sS'13'
p4075
I174
sS'cracks'
p4076
I2367
sS'15'
p4077
I477
sS'14'
p4078
I4115
sS'17'
p4079
I787
sS'16'
p4080
I1681
sS'19'
p4081
I2374
sS'18'
p4082
I3549
sS'midtown'
p4083
I4706
sS'protected'
p4084
I3845
sS'booted'
p4085
I3041
sS'venture'
p4086
I5066
sS'were'
p4087
I248
sS'spicy-'
p4088
I6686
sS'gigantic'
p4089
I5858
sS'coconut'
p4090
I5113
sS'voices'
p4091
I6955
sS'quicly'
p4092
I990
sS'himself'
p4093
I4935
sS'pastry'
p4094
I4310
sS'nazi'
p4095
I6226
sS'speakers'
p4096
I2073
sS'efficient'
p4097
I866
sS'answering'
p4098
I1702
sS'upgrading'
p4099
I1779
sS'shocked'
p4100
I2178
sS'squad'
p4101
I1339
sS'interior'
p4102
I4258
sS'performance'
p4103
I1111
sS'switching'
p4104
I2172
sS'1,700'
p4105
I2168
sS'201'
p4106
I2841
sS'200'
p4107
I2428
sS'pain'
p4108
I2858
sS'theatre'
p4109
I5150
sS'normal'
p4110
I2519
sS'track'
p4111
I819
sS'cheesecake'
p4112
I4865
sS'paid'
p4113
I259
sS'insanity'
p4114
I3652
sS'beta'
p4115
I2533
sS'pair'
p4116
I3904
sS'queens'
p4117
I4416
sS'sutton'
p4118
I4926
sS'especially'
p4119
I1206
sS'surprising'
p4120
I4899
sS'speaker-'
p4121
I713
sS'precise'
p4122
I4455
sS'rating'
p4123
I3034
sS'lexicon'
p4124
I1196
sS'shot'
p4125
I2309
sS'fishy'
p4126
I4786
sS'show'
p4127
I762
sS'corned'
p4128
I5018
sS'corner'
p4129
I2137
sS'label'
p4130
I2294
sS'enthusiast'
p4131
I3125
sS'treasure'
p4132
I6012
sS'cheeseburger'
p4133
I5922
sS'enough'
p4134
I1670
sS'lauded'
p4135
I2356
sS'black'
p4136
I1541
sS'deployed'
p4137
I1133
sS'exaggeration'
p4138
I2665
sS'get'
p4139
I222
sS'winters'
p4140
I3709
sS'nearly'
p4141
I1601
sS'uninstalled'
p4142
I2250
sS'gem'
p4143
I4855
sS'secondary'
p4144
I2638
sS'morning'
p4145
I1754
sS'miles'
p4146
I2404
sS'finishing'
p4147
I4472
sS'worrying'
p4148
I3249
sS'silently'
p4149
I2091
sS'honesty'
p4150
I4132
sS'seat'
p4151
I4726
sS'cocktails'
p4152
I6145
sS'seal'
p4153
I225
sS'calendar'
p4154
I2967
sS'wonder'
p4155
I2671
sS'satisfying'
p4156
I5880
sS'24/7'
p4157
I3609
sS'forecast'
p4158
I2966
sS'behind'
p4159
I1334
sS'chewy'
p4160
I4216
sS'reading'
p4161
I1377
sS'across'
p4162
I727
sS'affordable'
p4163
I2630
sS'august'
p4164
I3093
sS'tuk'
p4165
I4519
sS'tue'
p4166
I2151
sS'coupons'
p4167
I3835
sS'dates'
p4168
I5953
sS'fried'
p4169
I2177
sS'chelsea'
p4170
I6260
sS'blasts'
p4171
I5659
sS'sketchy'
p4172
I6514
sS'patrons'
p4173
I2477
sS'disappointment'
p4174
I173
sS'among'
p4175
I4170
sS'flavorless'
p4176
I4729
sS'firewall'
p4177
I1405
sS'venues'
p4178
I5606
sS'innovations'
p4179
I3623
sS'ballato'
p4180
I6336
sS'cancel'
p4181
I2999
sS'worthwhile'
p4182
I6486
sS'considering'
p4183
I3379
sS'mare'
p4184
I5987
sS'arts'
p4185
I2957
sS'capable'
p4186
I1878
sS'netbooks'
p4187
I64
sS'mark'
p4188
I2844
sS'mart'
p4189
I1057
sS'dependable'
p4190
I2193
sS'judging'
p4191
I6972
sS'mary'
p4192
I4244
sS'shopping'
p4193
I2207
sS'offered'
p4194
I1514
sS'squash'
p4195
I6567
sS'dangerous'
p4196
I2022
sS'laptops'
p4197
I106
sS'spills'
p4198
I3552
sS'wake'
p4199
I6351
sS'isolator'
p4200
I1584
sS'hardcore'
p4201
I5982
sS'offeres'
p4202
I5437
sS'those'
p4203
I808
sS'sound'
p4204
I714
sS'disconnected'
p4205
I1288
sS"n't"
p4206
I127
sS'hdd'
p4207
I1979
sS'promising'
p4208
I6057
sS'margin'
p4209
I2341
sS'bathrooms'
p4210
I6994
sS'eventually'
p4211
I803
sS'rubbing'
p4212
I4023
sS'coffee'
p4213
I1970
sS'sleeping'
p4214
I5285
sS'middle'
p4215
I723
sS'sudden'
p4216
I3420
sS'loosing'
p4217
I3309
sS'experiance'
p4218
I4581
sS'obnoxious'
p4219
I5714
sS'everyday'
p4220
I2781
sS'bags'
p4221
I3576
sS'different'
p4222
I1817
sS'doctor'
p4223
I2126
sS'pay'
p4224
I907
sS'amateurs'
p4225
I2714
sS'same'
p4226
I202
sS'pad'
p4227
I1025
sS'uncourteous'
p4228
I6045
sS'stepped'
p4229
I5435
sS'pam'
p4230
I6098
sS'extended'
p4231
I650
sS'assist'
p4232
I2981
sS'companion'
p4233
I2969
sS'running'
p4234
I322
sS'disapointing'
p4235
I5799
sS'totally'
p4236
I249
sS'hainv'
p4237
I3240
sS'roommate'
p4238
I5874
sS'substantive'
p4239
I3470
sS'amounts'
p4240
I878
sS'solve'
p4241
I3005
sS'bottle'
p4242
I4480
sS'bumping'
p4243
I2240
sS'amazed'
p4244
I1964
sS'consisted'
p4245
I6505
sS'gates'
p4246
I2540
sS'outdoor'
p4247
I5303
sS'clogging'
p4248
I6059
sS'money'
p4249
I167
sS'reputable'
p4250
I3076
sS'aspect'
p4251
I3285
sS'flavor'
p4252
I4884
sS'multiples'
p4253
I6602
sS'6:30'
p4254
I6634
sS'japenese'
p4255
I6986
sS'clueless'
p4256
I4673
sS'mcdonald'
p4257
I4754
sS'pile'
p4258
I2584
sS'4'
p4259
I585
sS'grating'
p4260
I6377
sS'moules'
p4261
I5015
sS'extensive'
p4262
I3388
sS'carring'
p4263
I2697
sS'mom'
p4264
I3101
sS'disappointed'
p4265
I1532
sS'definently'
p4266
I5506
sS'serves'
p4267
I3071
sS'server'
p4268
I4179
sS'facing'
p4269
I4716
sS'notified'
p4270
I6969
sS'either'
p4271
I2110
sS'robbery'
p4272
I875
sS'nosh'
p4273
I6868
sS'served'
p4274
I3871
sS'abilitiy'
p4275
I1447
sS'naan'
p4276
I4887
sS'enjoys'
p4277
I6714
sS'images'
p4278
I831
sS'm6809'
p4279
I3762
sS'organizing'
p4280
I2746
sS'gross'
p4281
I4014
sS'outs'
p4282
I5242
sS'confirm'
p4283
I4906
sS'drenched'
p4284
I5336
sS'fondue'
p4285
I5359
sS'overly'
p4286
I2596
sS'critical'
p4287
I3685
sS'moderate'
p4288
I2626
sS'thali'
p4289
I6563
sS'roofdeck'
p4290
I6232
sS'dissapointing'
p4291
I6849
sS'seconds'
p4292
I1380
sS'manufactured'
p4293
I3858
sS'specifially'
p4294
I2353
sS'awsome'
p4295
I3063
sS'broken'
p4296
I481
sS'secondi'
p4297
I6354
sS'manufacturer'
p4298
I2942
sS'island'
p4299
I3179
sS'mixed'
p4300
I6177
sS'desparation'
p4301
I497
sS'road'
p4302
I847
sS'quietly'
p4303
I5855
sS'strip'
p4304
I4284
sS'uptown'
p4305
I5951
sS'18-days'
p4306
I3901
sS'bon'
p4307
I6607
sS'shells'
p4308
I4096
sS'mondays'
p4309
I4978
sS'spicy'
p4310
I4843
sS'now")software'
p4311
I1389
sS'strikes'
p4312
I6100
sS'sophisticated'
p4313
I3541
sS'bookstore'
p4314
I2216
sS'constandly'
p4315
I1136
sS'vindaloo'
p4316
I5507
sS'horedevous'
p4317
I6796
sS'spice'
p4318
I3842
sS'sittingnext'
p4319
I5258
sS'romantic'
p4320
I4304
sS'vhs'
p4321
I2534
sS'strawberry'
p4322
I6877
sS'jabbing'
p4323
I4928
sS'asthetically'
p4324
I5745
sS'manuel'
p4325
I3929
sS'powerless'
p4326
I2129
sS'palate'
p4327
I5236
sS'videos'
p4328
I1403
sS'deep'
p4329
I3164
sS'10-key'
p4330
I2409
sS'imagination'
p4331
I6309
sS'file'
p4332
I1452
sS'girlfriend'
p4333
I2284
sS'lifetime'
p4334
I5065
sS'rapido'
p4335
I7038
sS'film'
p4336
I3577
sS'fill'
p4337
I5162
sS'again'
p4338
I366
sS'drivers'
p4339
I523
sS'field'
p4340
I2051
sS'doyers'
p4341
I6899
sS'obsessed'
p4342
I3180
sS'students'
p4343
I2007
sS'important'
p4344
I809
sS'brands'
p4345
I2015
sS'resembled'
p4346
I6008
sS'remote'
p4347
I2165
sS'unload'
p4348
I4068
sS'u'
p4349
I2112
sS'-dual'
p4350
I4031
sS'alright'
p4351
I818
sS'12'
p4352
I2188
sS'resolution'
p4353
I1121
sS'forget'
p4354
I742
sS'mozzerella'
p4355
I5207
sS'dollar'
p4356
I2429
sS'devine'
p4357
I6445
sS'browsers'
p4358
I3040
sS'talks'
p4359
I2465
sS'porcini'
p4360
I5543
sS'children'
p4361
I1955
sS'reluctant'
p4362
I6140
sS'place,,,it'
p4363
I3569
sS'sashimi'
p4364
I4666
sS'cliick'
p4365
I1662
sS'premium'
p4366
I1148
sS'returning'
p4367
I910
sS'powerbook'
p4368
I1224
sS'overdone'
p4369
I4910
sS'hewlett'
p4370
I2894
sS'fall'
p4371
I2759
sS'difference'
p4372
I1912
sS'gf'
p4373
I5524
sS'convienent'
p4374
I3662
sS'neighborhood'
p4375
I4245
sS'portable'
p4376
I484
sS'burger'
p4377
I4941
sS'zero'
p4378
I2460
sS'quiet-'
p4379
I6218
sS'cornelia'
p4380
I6199
sS'further'
p4381
I4923
sS'ribbon'
p4382
I4979
sS'creatures'
p4383
I6315
sS'90s'
p4384
I2013
sS'courtesey'
p4385
I5314
sS'stood'
p4386
I4987
sS'opted'
p4387
I2328
sS'brackets'
p4388
I4166
sS'cosette'
p4389
I6149
sS'public'
p4390
I3137
sS"c'mon"
p4391
I2867
sS'component'
p4392
I3745
sS'surfer'
p4393
I2199
sS'operating'
p4394
I416
sS'900'
p4395
I3749
sS'airport'
p4396
I6327
sS'lasagna'
p4397
I4694
sS'narrow'
p4398
I4630
sS'outragous'
p4399
I6605
sS'eye'
p4400
I4547
sS'wiped'
p4401
I1079
sS'two'
p4402
I811
sS'comparing'
p4403
I3007
sS'torro'
p4404
I6811
sS'chettinad'
p4405
I5376
sS'recomendations'
p4406
I6572
sS'diamond'
p4407
I5579
sS'landed'
p4408
I3068
sS'particular'
p4409
I1851
sS'town'
p4410
I1684
sS'none'
p4411
I843
sS'hour'
p4412
I774
sS'recall'
p4413
I3494
sS'sucks'
p4414
I2246
sS'del'
p4415
I4816
sS'dec'
p4416
I1840
sS'def'
p4417
I6009
sS'purchases'
p4418
I2028
sS'compare'
p4419
I1573
sS'korma'
p4420
I6575
sS'stacking'
p4421
I1233
sS'share'
p4422
I1875
sS'minimun'
p4423
I5117
sS'minimum'
p4424
I5516
sS'numbers'
p4425
I1902
sS'purchased'
p4426
I513
sS'sharp'
p4427
I1592
sS'needs'
p4428
I455
sS'awkward'
p4429
I3949
sS'rye'
p4430
I5021
sS'stir'
p4431
I6325
sS'advice'
p4432
I4698
sS'hardcopy'
p4433
I3928
sS'par'
p4434
I1848
sS'frills'
p4435
I3270
sS'sophistication'
p4436
I6049
sS'connectivity'
p4437
I2783
sS'blood'
p4438
I3800
sS'coming'
p4439
I2792
sS'shuts'
p4440
I1794
sS'bloom'
p4441
I4848
sS'response'
p4442
I3539
sS'crowded'
p4443
I4404
sS'coat'
p4444
I6304
sS'eats'
p4445
I5031
sS'keynotes'
p4446
I3698
sS'cs5'
p4447
I2346
sS'pleasure'
p4448
I341
sS'playing'
p4449
I783
sS'dough'
p4450
I1609
sS'lava'
p4451
I4464
sS'yourselves'
p4452
I6914
sS'existence'
p4453
I4880
sS'suffer'
p4454
I4191
sS'arrogant'
p4455
I5612
sS'24'
p4456
I2052
sS'messed'
p4457
I2140
sS'20'
p4458
I1379
sS'22'
p4459
I3177
sS'23'
p4460
I2972
sS'pcs'
p4461
I645
sS'neightborhood'
p4462
I6660
sS'28'
p4463
I6561
sS'famished'
p4464
I5958
sS'late'
p4465
I1041
sS'pesto'
p4466
I4566
sS'someone'
p4467
I1564
sS'seeking'
p4468
I6765
sS'primary'
p4469
I1298
sS'walls'
p4470
I2702
sS'complain'
p4471
I619
sS'easily'
p4472
I1266
sS'micro'
p4473
I2798
sS'biscuits'
p4474
I5276
sS'ports'
p4475
I1293
sS'everyone'
p4476
I2933
sS'delicious'
p4477
I4313
sS'meaningless'
p4478
I6468
sS'house'
p4479
I1191
sS'fish'
p4480
I4458
sS'hard'
p4481
I156
sS'idea'
p4482
I1917
sS'engaging'
p4483
I6915
sS'oil'
p4484
I5327
sS'connect'
p4485
I703
sS'haru'
p4486
I4626
sS'lovers'
p4487
I4300
sS'mayonaisse'
p4488
I6413
sS'discouraging'
p4489
I3523
sS'numbingly'
p4490
I2615
sS'longtime'
p4491
I6550
sS'print'
p4492
I3474
sS'brewery'
p4493
I4402
sS'bistro'
p4494
I4556
sS'pathetic'
p4495
I4609
sS'squished'
p4496
I6603
sS'warrenty'
p4497
I559
sS'pleasant'
p4498
I2700
sS'iphoto'
p4499
I1906
sS'members'
p4500
I3192
sS'laughable'
p4501
I3754
sS'beginning'
p4502
I2451
sS'benefits'
p4503
I1204
sS'jimmys'
p4504
I6529
sS'computers'
p4505
I988
sS'additonal'
p4506
I423
sS'barber'
p4507
I6901
sS'radeon'
p4508
I2648
sS'valentine'
p4509
I7015
sS'pop'
p4510
I2676
sS'done'
p4511
I136
sS'razor'
p4512
I218
sS'twenty'
p4513
I2242
sS'5th'
p4514
I2297
sS'least'
p4515
I291
sS'paint'
p4516
I1362
sS'statement'
p4517
I2663
sS'tramezzinis'
p4518
I5235
sS'gigabytes'
p4519
I657
sS'parm'
p4520
I6502
sS'park'
p4521
I4745
sS'unpdate'
p4522
I1428
sS'part'
p4523
I472
sS'favorable'
p4524
I6874
sS'believe'
p4525
I874
sS'b'
p4526
I2521
sS'compliments'
p4527
I3333
sS'gotten'
p4528
I414
sS'10-piece'
p4529
I5499
sS'supposed'
p4530
I3386
sS'treated'
p4531
I2464
sS'outta'
p4532
I5854
sS'service-'
p4533
I6852
sS'hastle'
p4534
I3366
sS'ages'
p4535
I6709
sS'hangout'
p4536
I5526
sS'orders'
p4537
I4494
sS'-runs'
p4538
I4033
sS'depending'
p4539
I2104
sS'majority'
p4540
I2014
sS'build'
p4541
I1846
sS'zucchini'
p4542
I6071
sS'province'
p4543
I5554
sS'up(i'
p4544
I442
sS'godfather'
p4545
I6597
sS'eggs'
p4546
I4759
sS'salmon'
p4547
I4509
sS'chart'
p4548
I4285
sS'most'
p4549
I754
sS'charm'
p4550
I1498
sS'significant'
p4551
I6258
sS'services'
p4552
I2081
sS'extremely'
p4553
I91
sS'compaq'
p4554
I1361
sS'opions'
p4555
I2572
sS'cramped'
p4556
I4606
sS'weigh'
p4557
I3689
sS'ky'
p4558
I2407
sS'beancurd'
p4559
I5047
sS'particularly'
p4560
I5009
sS'espresso'
p4561
I6694
sS'carefully'
p4562
I2576
sS'fine'
p4563
I983
sS'find'
p4564
I522
sS'giant'
p4565
I3027
sS'unhappy'
p4566
I1876
sS'idiots'
p4567
I4136
sS'override'
p4568
I4126
sS'8'
p4569
I966
sS'peformance'
p4570
I3462
sS'paperweight'
p4571
I3970
sS'mein'
p4572
I6791
sS'express'
p4573
I747
sS'cheaper'
p4574
I1437
sS'batter'
p4575
I6472
sS'breast'
p4576
I6105
sS'restart'
p4577
I2235
sS'resolve'
p4578
I3467
sS'heartier'
p4579
I6950
sS'frankly'
p4580
I4621
sS'mc371ll'
p4581
I715
sS'crabmeat'
p4582
I4693
sS'remove'
p4583
I206
sS'common'
p4584
I1357
sS' <RIGHT PARENTHESIS> '
p4585
I198
sS'restaurants'
p4586
I4332
sS'representive'
p4587
I873
sS'doneness'
p4588
I4640
sS'lion'
p4589
I1789
sS'tender'
p4590
I4713
sS'chose'
p4591
I936
sS'repairs'
p4592
I1798
sS'hdmi'
p4593
I1692
sS'expert'
p4594
I4242
sS'visiting'
p4595
I4294
sS'reaearch'
p4596
I898
sS'burner'
p4597
I1548
sS'fans'
p4598
I3241
sS'beautification'
p4599
I6194
sS'myriad'
p4600
I1355
sS'burned'
p4601
I1965
sS'champagne'
p4602
I5022
sS'guacamole+shrimp'
p4603
I5917
sS'complementary'
p4604
I5393
sS'interfaces'
p4605
I3130
sS'pams'
p4606
I5989
sS'cubes'
p4607
I4722
sS'restaurant'
p4608
I4305
sS'carelessness'
p4609
I1937
sS'annual'
p4610
I7032
sS'alot'
p4611
I886
sS'upgraded'
p4612
I655
sS'subpar'
p4613
I4866
sS'cakes'
p4614
I6358
sS'decore'
p4615
I6747
sS'point'
p4616
I978
sS'simple'
p4617
I668
sS'simply'
p4618
I931
sS'shutdown'
p4619
I3789
sS'upgrades'
p4620
I3953
sS'expensive'
p4621
I743
sS'headaches'
p4622
I2633
sS'consuming'
p4623
I3382
sS'fused'
p4624
I2331
sS'raise'
p4625
I6954
sS'create'
p4626
I3165
sS'creativity'
p4627
I1536
sS'yasuda'
p4628
I5823
sS'secret'
p4629
I4417
sS'dropping'
p4630
I1924
sS'portraits'
p4631
I6699
sS'inconvienent'
p4632
I1919
sS'intrusive'
p4633
I2143
sS'meeting'
p4634
I4748
sS'assorted'
p4635
I4665
sS'priced'
p4636
I1897
sS'pricey'
p4637
I162
sS'understand'
p4638
I1282
sS'compatable'
p4639
I1707
sS'unnecessarily'
p4640
I6382
sS'bruschetta'
p4641
I5036
sS'replaces'
p4642
I2947
sS'raw'
p4643
I4492
sS'solid'
p4644
I2273
sS'bill'
p4645
I2539
sS'replaced'
p4646
I710
sS'mimosas'
p4647
I6894
sS'fun'
p4648
I2215
sS'74th'
p4649
I4876
sS'shoddy'
p4650
I908
sS'drawbacks'
p4651
I5371
sS'encountered'
p4652
I2515
sS'decoration'
p4653
I4259
sS'itself'
p4654
I548
sS'dahkin'
p4655
I5891
sS'kernal'
p4656
I3660
sS'italy'
p4657
I5645
sS'twice-1'
p4658
I6030
sS'concoction'
p4659
I5673
sS'complaints'
p4660
I1013
sS'corridor'
p4661
I4474
sS'ray'
p4662
I4599
sS'dualboot'
p4663
I2025
sS'development'
p4664
I3289
sS'strips'
p4665
I5582
sS'tupperware'
p4666
I6285
sS'keys'
p4667
I961
sS'leopard'
p4668
I1261
sS'husbands'
p4669
I4390
sS'moment'
p4670
I2601
sS'purpose'
p4671
I4010
sS'infused'
p4672
I4413
sS'gestures'
p4673
I230
sS'task'
p4674
I3704
sS'spent'
p4675
I533
sS'iffy'
p4676
I1426
sS'everythig'
p4677
I6291
sS'salvatore'
p4678
I5664
sS'entry'
p4679
I2631
sS'spend'
p4680
I568
sS'darn'
p4681
I3108
sS'alluring'
p4682
I4575
sS'netboook'
p4683
I3411
sS'isolated'
p4684
I4139
sS'shape'
p4685
I3102
sS'alternative'
p4686
I5844
sS'cut'
p4687
I2304
sS'cup'
p4688
I4325
sS'hated'
p4689
I1636
sS'snag'
p4690
I6655
sS'source'
p4691
I5748
sS'pizzaria'
p4692
I4554
sS'snap'
p4693
I348
sS'excited'
p4694
I2114
sS'hater'
p4695
I1597
sS'ridiculously'
p4696
I2582
sS'dependability'
p4697
I2570
sS'big'
p4698
I265
sS'bid'
p4699
I2161
sS'educator'
p4700
I4153
sS'judgement'
p4701
I5780
sS'matters'
p4702
I3544
sS'truely'
p4703
I684
sS'narcissist'
p4704
I3356
sS'droped'
p4705
I3668
sS'cognitive'
p4706
I3764
sS'semi'
p4707
I3608
sS'indication'
p4708
I2478
sS'google'
p4709
I3282
sS'often'
p4710
I2711
sS'collectors'
p4711
I3304
sS'absolutely'
p4712
I100
sS'obliged'
p4713
I5040
sS'magnificent'
p4714
I5246
sS'back'
p4715
I200
sS'backlighting'
p4716
I4131
sS'candle'
p4717
I4282
sS'pomodori'
p4718
I5374
sS'ourselves'
p4719
I4345
sS'scale'
p4720
I3224
sS'decision'
p4721
I1301
sS'per'
p4722
I4940
sS'overprice'
p4723
I6884
sS'pell'
p4724
I6900
sS'pen'
p4725
I6297
sS'sneakers'
p4726
I5106
sS'nose'
p4727
I4675
sS'amazin'
p4728
I4500
sS'intial'
p4729
I4186
sS'patient'
p4730
I3203
sS'300'
p4731
I2865
sS'crispier'
p4732
I6080
sS'overstock.com'
p4733
I3775
sS'from'
p4734
I62
sS'oatmeal'
p4735
I4764
sS'piled'
p4736
I5020
sS'qousmio'
p4737
I2280
sS'beans'
p4738
I5702
sS'consequently'
p4739
I6958
sS'jimmy'
p4740
I4505
sS'techie'
p4741
I443
sS'satisfactory'
p4742
I3138
sS'framed'
p4743
I2339
sS'reciept'
p4744
I3345
sS'steven'
p4745
I5384
sS'lesson'
p4746
I3979
sS'carpaachio'
p4747
I5448
sS'homemade'
p4748
I4908
sS'forward'
p4749
I421
sS'bored'
p4750
I4360
sS'adjusting'
p4751
I1527
sS'hoped'
p4752
I1081
sS'boys'
p4753
I5288
sS'directed'
p4754
I3597
sS'requesting'
p4755
I5905
sS'planet'
p4756
I4003
sS"'re"
p4757
I176
sS'groove'
p4758
I6365
sS'sort'
p4759
I2551
sS'constant'
p4760
I2265
sS'inexpertly'
p4761
I5650
sS'single'
p4762
I392
sS'appetizing'
p4763
I5131
sS'cafe'
p4764
I4507
sS'%'
p4765
I1154
sS'plugged'
p4766
I324
sS'excuses'
p4767
I3798
sS'functionality'
p4768
I3089
sS'1,2,3'
p4769
I6240
sS'mayonnaise'
p4770
I4231
sS'pcconnection'
p4771
I746
sS'beatiful'
p4772
I6751
sS'gulab'
p4773
I5167
sS'pineapple'
p4774
I6863
sS'prepared'
p4775
I5202
sS'cater'
p4776
I6394
sS'desert'
p4777
I4344
sS'implies'
p4778
I7018
sS'overlooking'
p4779
I5120
sS'blinks'
p4780
I2825
sS'cooked'
p4781
I4237
sS'2000'
p4782
I3666
sS'2006'
p4783
I3568
sS'2007'
p4784
I1768
sS'2004'
p4785
I3087
sS'2005'
p4786
I3036
sS'2008'
p4787
I2046
sS'2009'
p4788
I1737
sS'patroon'
p4789
I5945
sS'magnetically'
p4790
I1215
sS'footing'
p4791
I6668
sS'jason'
p4792
I5294
sS'courdoroy'
p4793
I5282
sS'rants'
p4794
I2694
sS'butprofessionally'
p4795
I3096
sS'vietnamese'
p4796
I4225
sS'peanut'
p4797
I6944
sS'factoring'
p4798
I2085
sS'intensive'
p4799
I3720
sS'germain'
p4800
I4223
sS'helps'
p4801
I359
sS'ambience'
p4802
I4742
sS'fatal'
p4803
I3444
sS'70.00'
p4804
I6840
sS'  '
p4805
I750
sS'dessert'
p4806
I4466
sS'putting'
p4807
I166
sS'entire'
p4808
I280
sS'staffs'
p4809
I6775
sS'murrays'
p4810
I6128
sS'busier'
p4811
I5152
sS'subwoofer'
p4812
I2074
sS'mobilize'
p4813
I4083
sS'botle'
p4814
I6839
sS'uncomfortable'
p4815
I2472
sS'subtle'
p4816
I6736
sS'carlo'
p4817
I6859
sS'vmware'
p4818
I634
sS'3x'
p4819
I6746
sS'giving'
p4820
I605
sS'access'
p4821
I2461
sS'inconvenienced'
p4822
I4079
sS'crossed'
p4823
I5840
sS'piped'
p4824
I4918
sS'body'
p4825
I1396
sS'consistant'
p4826
I5879
sS'exchange'
p4827
I48
sS'apologetic'
p4828
I6800
sS'1-to-1'
p4829
I47
sS'packing'
p4830
I1617
sS'sink'
p4831
I2793
sS'others'
p4832
I971
sS'dissuade'
p4833
I4002
sS'sing'
p4834
I3742
sS'irritating'
p4835
I3019
sS'accident)-'
p4836
I1325
sS'38'
p4837
I4034
sS'33'
p4838
I5412
sS'32'
p4839
I3095
sS'30'
p4840
I355
sS'36'
p4841
I3114
sS'35'
p4842
I1945
sS'weekday'
p4843
I5888
sS'proof'
p4844
I2820
sS'honor'
p4845
I3077
sS'named'
p4846
I3478
sS'manna'
p4847
I6664
sS'private'
p4848
I5368
sS'towners'
p4849
I6338
sS'decrease'
p4850
I5388
sS'names'
p4851
I6453
sS'tap'
p4852
I1649
sS'resolutions'
p4853
I2468
sS'gateway'
p4854
I1254
sS'lime'
p4855
I4265
sS'toshie'
p4856
I1916
sS'toshib'
p4857
I3828
sS'readable'
p4858
I2507
sS'seamless'
p4859
I2108
sS'chu'
p4860
I4976
sS'themselves'
p4861
I3508
sS'oily'
p4862
I4561
sS'astoria'
p4863
I6484
sS'ashamed'
p4864
I6087
sS'account'
p4865
I2917
sS'f'
p4866
I1411
sS'tunnel'
p4867
I5887
sS'obvious'
p4868
I2899
sS'praise'
p4869
I4428
sS'closing'
p4870
I3340
sS'seafoods'
p4871
I4270
sS'reserved'
p4872
I5693
sS'expandable'
p4873
I94
sS'serial'
p4874
I1522
sS'native'
p4875
I5097
sS'lamb'
p4876
I5095
sS'psyched'
p4877
I3305
sS'varied'
p4878
I6134
sS'lame'
p4879
I3578
sS'dinners'
p4880
I6342
sS'holds'
p4881
I1399
sS'williamsburg'
p4882
I4898
sS'attachment'
p4883
I4080
sS'stock'
p4884
I1302
sS'watery'
p4885
I5478
sS'buildings'
p4886
I2166
sS'specifications'
p4887
I1781
sS'waters'
p4888
I6314
sS'collection'
p4889
I3766
sS'bothered'
p4890
I4733
sS'frat'
p4891
I5287
sS'incompetency'
p4892
I6165
sS'poached'
p4893
I5430
sS'lines'
p4894
I3405
sS'amazon'
p4895
I1647
sS'furious'
p4896
I3897
sS'fallback'
p4897
I6636
sS'lined'
p4898
I5214
sS'couteract'
p4899
I7012
sS'bartenders'
p4900
I5456
sS'ignite'
p4901
I3811
sS'rices'
p4902
I5488
sS'galaxy'
p4903
I2989
sS'bunch'
p4904
I1506
sS'lg'
p4905
I845
sS'le'
p4906
I4423
sS'lb'
p4907
I6913
sS'la'
p4908
I4589
sS'll'
p4909
I2787
sS'winning'
p4910
I3868
sS'lt'
p4911
I6919
sS'willing'
p4912
I2427
sS'ls'
p4913
I6555
sS'latitude'
p4914
I2197
sS'ly'
p4915
I6942
sS'dad'
p4916
I1159
sS'greater'
p4917
I4001
sS'dal'
p4918
I4516
sS'dam'
p4919
I4517
sS'swordfish'
p4920
I5001
sS'toshiba'
p4921
I66
sS'mention'
p4922
I993
sS'cutting'
p4923
I2950
sS'day'
p4924
I69
sS'strive'
p4925
I2514
sS'february'
p4926
I3951
sS'airports'
p4927
I2470
sS'thrill'
p4928
I6339
sS'warned'
p4929
I5227
sS'freshness'
p4930
I6112
sS'blazing'
p4931
I1460
sS'experienced'
p4932
I3189
sS'flair'
p4933
I6229
sS'apologize'
p4934
I6970
sS'onglet'
p4935
I6016
sS'lentil'
p4936
I5942
sS'salesman'
p4937
I1569
sS'res'
p4938
I2915
sS'rep'
p4939
I3355
sS'messenger'
p4940
I2307
sS'flushing'
p4941
I6268
sS'electronics'
p4942
I1367
sS'reg'
p4943
I2609
sS'red'
p4944
I3531
sS'scampi'
p4945
I5495
sS'approached'
p4946
I5477
sS'coem'
p4947
I6793
sS'freshwater'
p4948
I5697
sS'indent'
p4949
I882
sS'steal'
p4950
I5720
sS"dvd'd"
p4951
I2171
sS'marcelo'
p4952
I6479
sS'mortal'
p4953
I6598
sS'retail'
p4954
I59
sS'south'
p4955
I4833
sS'rudely'
p4956
I4422
sS'finest'
p4957
I6493
sS'reaches'
p4958
I4451
sS'improvements'
p4959
I2238
sS'facie'
p4960
I4795
sS'lagging'
p4961
I1022
sS'reached'
p4962
I1921
sS'owning'
p4963
I380
sS'sadly'
p4964
I3741
sS'monkey'
p4965
I3529
sS'firewire'
p4966
I1733
sS'oline'
p4967
I2017
sS'intermediate'
p4968
I2348
sS'impecible'
p4969
I4409
sS'pakistani'
p4970
I5212
sS'macmall'
p4971
I1176
sS'bit'
p4972
I1085
sS'nobody'
p4973
I6499
sS'completes'
p4974
I6545
sS'ipad'
p4975
I1299
sS'loved'
p4976
I1248
sS'prune'
p4977
I6372
sS'mbps'
p4978
I802
sS'flashed'
p4979
I4046
sS'loves'
p4980
I2175
sS'lover'
p4981
I1141
sS'visited'
p4982
I2152
sS'inobtrusive'
p4983
I6519
sS'comfortable'
p4984
I2127
sS'comfortably'
p4985
I3989
sS'unlikely'
p4986
I2955
sS'have'
p4987
I32
sS'saltimbocca'
p4988
I6816
sS'apparently'
p4989
I2117
sS'min'
p4990
I2500
sS'mic'
p4991
I1124
sS'mid'
p4992
I2012
sS'mix'
p4993
I4663
sS'320'
p4994
I3391
sS'nanbu'
p4995
I6989
sS'unless'
p4996
I238
sS'takeaway'
p4997
I6490
sS'disappointments'
p4998
I1989
sS'barebecued'
p4999
I6532
sS'eight'
p5000
I2940
sS'logitech'
p5001
I2430
sS'suprisingly'
p5002
I6770
sS'sally'
p5003
I5646
sS'payment'
p5004
I2111
sS'enthusiastic'
p5005
I3085
sS'frederick'
p5006
I5385
sS'occasion'
p5007
I2324
sS'normally'
p5008
I3573
sS'selection'
p5009
I4269
sS'text'
p5010
I4072
sS'inludes'
p5011
I5752
sS'doughy'
p5012
I6448
sS'schimmel'
p5013
I6924
sS'chevre'
p5014
I5222
sS'thicker'
p5015
I3398
sS'staff'
p5016
I1701
sS'grabbed'
p5017
I6831
sS'knowledge'
p5018
I5797
sS'sparks'
p5019
I1475
sS'downstairs'
p5020
I6279
sS'emitting'
p5021
I2023
sS'regularly'
p5022
I3334
sS'thouroughly'
p5023
I6742
sS'exceptional'
p5024
I3560
sS'lobe'
p5025
I1439
sS'photography'
p5026
I2076
sS'registration/1st'
p5027
I2873
sS'perfection'
p5028
I3565
sS'aforementioned'
p5029
I5280
sS'striped'
p5030
I4968
sS'areas'
p5031
I3594
sS'fixes'
p5032
I2975
sS'calling'
p5033
I2433
sS'cycles'
p5034
I2635
sS'exists'
p5035
I5750
sS'taiwanese'
p5036
I4398
sS'literate'
p5037
I4796
sS'purses'
p5038
I3860
sS'bruno'
p5039
I6759
sS'progress'
p5040
I4487
sS'nudged'
p5041
I6108
sS'deliver'
p5042
I6277
sS'synced'
p5043
I2208
sS'mows'
p5044
I1200
sS'listers'
p5045
I5847
sS'commenting'
p5046
I4845
sS'joke'
p5047
I3238
sS'taking'
p5048
I13
sS'equal'
p5049
I3502
sS'agree'
p5050
I3370
sS'kosher'
p5051
I6405
sS' <PERIOD> '
p5052
I23
sS'weehawken'
p5053
I6267
sS'passing'
p5054
I4973
sS'otherwise'
p5055
I3058
sS'comment'
p5056
I1370
sS'commend'
p5057
I5688
sS'laugh'
p5058
I1277
sS'monstrosity'
p5059
I3447
sS'atmorphere'
p5060
I4585
sS'copies'
p5061
I2021
sS'seasoned'
p5062
I6948
sS'blasted'
p5063
I5116
sS'curtain'
p5064
I5306
sS'bulk'
p5065
I2344
sS'finished'
p5066
I3587
sS'expeirencing'
p5067
I3349
sS'sausages'
p5068
I5274
sS'angles'
p5069
I4084
sS'waterbugs'
p5070
I6813
sS'fellow'
p5071
I1712
sS'arisen'
p5072
I1029
sS'multi'
p5073
I228
sS'holiday'
p5074
I4717
sS'plain'
p5075
I1944
sS'appearance'
p5076
I1122
sS'value'
p5077
I574
sS'frustrating'
p5078
I300
sS'carved'
p5079
I2330
sS'manually'
p5080
I3003
sS'chaotic'
p5081
I3182
sS'squid'
p5082
I5256
sS'helped'
p5083
I3744
sS'claimed'
p5084
I5058
sS'inspector'
p5085
I6398
sS'starcraft'
p5086
I2827
sS'begining'
p5087
I1473
sS'though-'
p5088
I3442
sS'twelfth'
p5089
I2824
sS'yada'
p5090
I2422
sS'caters'
p5091
I5243
sS'quad'
p5092
I922
sS'tighter'
p5093
I850
sS'center'
p5094
I43
sS'nevertheless'
p5095
I4218
sS'thought'
p5096
I731
sS'sets'
p5097
I6787
sS'raving'
p5098
I6238
sS'floored'
p5099
I5362
sS'restuarant'
p5100
I5190
sS'stores'
p5101
I2773
sS'drafty'
p5102
I5130
sS'proximity'
p5103
I6623
sS'wagner'
p5104
I4744
sS'hideof'
p5105
I6744
sS'seats'
p5106
I4261
sS'tone'
p5107
I6788
sS'bottom,,,about'
p5108
I725
sS'wether'
p5109
I3406
sS'hobokeni.com'
p5110
I5692
sS'raves'
p5111
I2695
sS'ads'
p5112
I3404
sS'lake'
p5113
I3457
sS'bench'
p5114
I4709
sS'them(since'
p5115
I3942
sS'spirals'
p5116
I3692
sS'reformed'
p5117
I3220
sS'resolved'
p5118
I3196
sS'royalty'
p5119
I5973
sS'wiling'
p5120
I4157
sS'dv6000'
p5121
I2895
sS'worki'
p5122
I1650
sS'motorola'
p5123
I1748
sS'like'
p5124
I116
sS'inviting'
p5125
I5726
sS'vibrant'
p5126
I5367
sS'works'
p5127
I283
sS'soft'
p5128
I212
sS'heel'
p5129
I6674
sS'italian'
p5130
I4479
sS'accessible'
p5131
I6107
sS'classical'
p5132
I5239
sS'alive'
p5133
I6288
sS'hair'
p5134
I3439
sS'recommendation'
p5135
I3498
sS'proper'
p5136
I4618
sS'-computer'
p5137
I3448
sS'stuffy'
p5138
I5003
sS'happens'
p5139
I1515
sS'ess'
p5140
I4703
sS'esp'
p5141
I4995
sS'economical'
p5142
I4825
sS'assuming'
p5143
I6880
sS'screwed'
p5144
I734
sS'forgettable'
p5145
I5378
sS'overcharged'
p5146
I4907
sS'conference'
p5147
I74
sS'pepper'
p5148
I5547
sS'noise'
p5149
I2410
sS'imformative'
p5150
I2670
sS'2-for'
p5151
I6031
sS'oiled'
p5152
I5804
sS'stellar'
p5153
I3123
sS'portioins'
p5154
I5068
sS'although'
p5155
I753
sS'hospitable'
p5156
I5972
sS'snapped'
p5157
I3962
sS'periodically'
p5158
I2761
sS'noisy'
p5159
I2744
sS'about'
p5160
I195
sS'actual'
p5161
I2542
sS'socket'
p5162
I2180
sS'certainty'
p5163
I6450
sS'abouy'
p5164
I2696
sS'flaky'
p5165
I6146
sS'introduced'
p5166
I5734
sS'powerpoint'
p5167
I3329
sS'narone'
p5168
I5295
sS'functional'
p5169
I3821
sS'smarty'
p5170
I1387
sS'aggrevation'
p5171
I3423
sS'yorkers'
p5172
I5454
sS'1980'
p5173
I3610
sS'rushed'
p5174
I4373
sS'marsala'
p5175
I5109
sS'biggest'
p5176
I2423
sS'maze'
p5177
I4578
sS'buy'
p5178
I221
sS'chatting'
p5179
I2164
sS'bus'
p5180
I3029
sS'brand'
p5181
I461
sS'but'
p5182
I163
sS'reminds'
p5183
I6129
sS'repeated'
p5184
I1800
sS'bun'
p5185
I5136
sS'editing'
p5186
I757
sS'memphis'
p5187
I4168
sS'versatile'
p5188
I2970
sS'partially'
p5189
I1138
sS'mizu'
p5190
I5011
sS'wise'
p5191
I6396
sS'wish'
p5192
I1046
sS'use----brought'
p5193
I4027
sS'breweries'
p5194
I6213
sS'outsoucing'
p5195
I2560
sS'minutes'
p5196
I914
sS'supreme'
p5197
I5519
sS'internals'
p5198
I3221
sS'pie'
p5199
I4257
sS'pig'
p5200
I5181
sS'vostro'
p5201
I3726
sS'shooting'
p5202
I1474
sS'antiviral'
p5203
I2799
sS'bijin'
p5204
I6990
sS'49'
p5205
I5473
sS'dressed'
p5206
I5324
sS'45'
p5207
I2762
sS'claiming'
p5208
I5142
sS'detail'
p5209
I6838
sS'40'
p5210
I2375
sS'forgivable'
p5211
I7051
sS'hugely'
p5212
I5590
sS'taxan'
p5213
I6769
sS'starting'
p5214
I2543
sS'original'
p5215
I3460
sS'yell'
p5216
I5319
sS'accidents'
p5217
I3551
sS'baked'
p5218
I5445
sS'8th'
p5219
I6708
sS'limited'
p5220
I1891
sS'legacies'
p5221
I4603
sS'hats'
p5222
I4548
sS'sleek'
p5223
I1294
sS'appetito'
p5224
I6231
sS'semprom'
p5225
I1314
sS'sleep'
p5226
I3791
sS'martinis'
p5227
I6677
sS'hate'
p5228
I246
sS'poorly'
p5229
I692
sS'replacements'
p5230
I1118
sS'patches'
p5231
I2646
sS'paris'
p5232
I4736
sS'347'
p5233
I6912
sS'whatsoever'
p5234
I3558
sS'under'
p5235
I468
sS'pride'
p5236
I1312
sS'@'
p5237
I4586
sS'every'
p5238
I294
sS'jack'
p5239
I2935
sS'chrismas'
p5240
I3960
sS'encounter'
p5241
I2545
sS'school'
p5242
I1145
sS'cause'
p5243
I3057
sS'.....'
p5244
I1327
sS'flashy'
p5245
I6520
sS'delightfully'
p5246
I6547
sS'seemlessly'
p5247
I3782
sS'enjoy'
p5248
I632
sS'consistent'
p5249
I5187
sS'direct'
p5250
I50
sS'surrounding'
p5251
I5522
sS'louder'
p5252
I1069
sS'2.the'
p5253
I3410
sS'shining'
p5254
I6976
sS'blue'
p5255
I204
sS'hide'
p5256
I3056
sS'ruben'
p5257
I4280
sS'selected'
p5258
I832
sS'supplied'
p5259
I3252
sS'asbolute'
p5260
I5920
sS'supplier'
p5261
I4011
sS'disney'
p5262
I5080
sS'dashboard'
p5263
I2962
sS'kicked'
p5264
I3878
sS'stared'
p5265
I4101
sS'hundreds'
p5266
I450
sS'studio'
p5267
I3451
sS'kicker'
p5268
I6244
sS'path'
p5269
I6151
sS'mozzarella'
p5270
I4552
sS'hideously'
p5271
I6667
sS'leaves'
p5272
I862
sS'changed'
p5273
I2983
sS'proportioned'
p5274
I6888
sS'changes'
p5275
I6620
sS'b.o.g'
p5276
I6784
sS'godmother'
p5277
I5668
sS'visible'
p5278
I729
sS'meats'
p5279
I4213
sS'polyclinic'
p5280
I3804
sS'would'
p5281
I364
sS'turin'
p5282
I1228
sS'breathe'
p5283
I6786
sS'phone'
p5284
I130
sS'excellent'
p5285
I1053
sS'vpn'
p5286
I3133
sS'off-'
p5287
I6558
sS'must'
p5288
I1740
sS'me'
p5289
I17
sS'tashiba'
p5290
I2718
sS'enjoying'
p5291
I1456
sS'cheapest'
p5292
I3973
sS'entertained'
p5293
I4060
sS'daft'
p5294
I4229
sS'existant'
p5295
I5460
sS'install'
p5296
I1090
sS'mr'
p5297
I4220
sS'my'
p5298
I51
sS'decorative'
p5299
I6481
sS'-integrated'
p5300
I4030
sS'gadgets'
p5301
I3157
sS'overheard'
p5302
I6356
sS'scheduling'
p5303
I2133
sS'boths'
p5304
I4864
sS'times'
p5305
I519
sS'attract'
p5306
I6217
sS'guarantee'
p5307
I1939
sS'end'
p5308
I1558
sS'sitting'
p5309
I888
sS'buns'
p5310
I5043
sS'kebabs'
p5311
I6300
sS'charging'
p5312
I1322
sS'badly'
p5313
I879
sS'paralles'
p5314
I4177
sS'description'
p5315
I5828
sS'mess'
p5316
I4614
sS'turing'
p5317
I3263
sS'arthritis'
p5318
I1673
sS'insultingly'
p5319
I6755
sS'amanzing'
p5320
I4319
sS'mesh'
p5321
I4830
sS'parallel'
p5322
I5821
sS'oldests'
p5323
I2713
sS'amid'
p5324
I6247
sS'ultimate'
p5325
I1525
sS'enter'
p5326
I4514
sS'oysters'
p5327
I5988
sS'unsteady'
p5328
I1831
sS'executed'
p5329
I4903
sS'over'
p5330
I569
sS'outshine'
p5331
I5601
sS'london'
p5332
I6023
sS'oven'
p5333
I5053
sS'expectations'
p5334
I1445
sS'imo'
p5335
I2558
sS'writing'
p5336
I756
sS'destroyed'
p5337
I1786
sS'complex'
p5338
I3923
sS'400'
p5339
I2254
sS'nightcap'
p5340
I5817
sS'tourist'
p5341
I5414
sS'several'
p5342
I374
sS'pbs'
p5343
I4836
sS'gluttons'
p5344
I4815
sS'potatoes'
p5345
I6170
sS'crunchy'
p5346
I5397
sS'filling'
p5347
I4658
sS'unforgetable'
p5348
I6408
sS'each'
p5349
I1567
sS'nb205'
p5350
I3486
sS'lasting'
p5351
I1559
sS'hanger'
p5352
I4315
sS'greenewich'
p5353
I6099
sS'celebrating'
p5354
I5733
sS'saturday'
p5355
I785
sS'large'
p5356
I73
sS'driving'
p5357
I2034
sS'god'
p5358
I2009
sS'laid'
p5359
I4849
sS'day-'
p5360
I4369
sS'nite'
p5361
I5030
sS'heavenly'
p5362
I5616
sS'got'
p5363
I109
sS'newly'
p5364
I3857
sS'inwood'
p5365
I5876
sS'associate'
p5366
I935
sS'free'
p5367
I790
sS'555soul'
p5368
I5124
sS'wanted'
p5369
I649
sS'z0j80001'
p5370
I2607
sS'inexpensive'
p5371
I1352
sS'days'
p5372
I478
sS'sandwhiches'
p5373
I6929
sS'heck'
p5374
I2024
sS'soda'
p5375
I5787
sS'aspire'
p5376
I1747
sS'unappreciative'
p5377
I6077
sS'onto'
p5378
I1972
sS'nhg'
p5379
I3805
sS'already'
p5380
I1736
sS'nha'
p5381
I4719
sS'attractions'
p5382
I6792
sS'r700'
p5383
I1065
sS'hearing'
p5384
I3503
sS'will'
p5385
I215
sS'categorize'
p5386
I932
sS'tamarind'
p5387
I4857
sS'researched'
p5388
I3643
sS'toy'
p5389
I2225
sS'sarcasm'
p5390
I379
sS'top'
p5391
I611
sS'antiques'
p5392
I5638
sS'heights'
p5393
I6983
sS'ton'
p5394
I3332
sS'too'
p5395
I541
sS'tom'
p5396
I5364
sS'gowns'
p5397
I5792
sS'inconvenient'
p5398
I2327
sS'ceiling'
p5399
I4916
sS'illiterate'
p5400
I3977
sS'enough-'
p5401
I5790
sS'tool'
p5402
I3425
sS'serve'
p5403
I1036
sS'took'
p5404
I199
sS'repeatable'
p5405
I6210
sS'17-inch'
p5406
I2153
sS'brushed'
p5407
I6137
sS'brulee'
p5408
I4525
sS'condiments'
p5409
I4870
sS'roles'
p5410
I861
sS'tourists'
p5411
I6622
sS'classes'
p5412
I1920
sS'18.4'
p5413
I2508
sS'bridge'
p5414
I5886
sS'ran'
p5415
I1571
sS'rao'
p5416
I4435
sS'ram'
p5417
I1824
sS'thr'
p5418
I5765
sS'talking'
p5419
I506
sS'-estimated'
p5420
I3752
sS'screws'
p5421
I3674
sS'leafy'
p5422
I4644
sS'seminar'
p5423
I72
sS'relatively'
p5424
I2667
sS'tho'
p5425
I5249
sS'1969'
p5426
I3536
sS'thoroughly'
p5427
I5051
sS'-'
p5428
I1009
sS'snow'
p5429
I1260
sS'elegance'
p5430
I6935
sS'investment'
p5431
I1415
sS'client'
p5432
I1720
sS'laughed'
p5433
I3824
sS'yucky'
p5434
I6757
sS'clunky'
p5435
I4053
sS'though'
p5436
I1047
sS'plenty'
p5437
I2094
sS'dissapoints'
p5438
I5054
sS'thougt'
p5439
I5465
sS'soupy'
p5440
I6324
sS'treats'
p5441
I5862
sS'soups'
p5442
I4459
sS'althougth'
p5443
I3042
sS'metal'
p5444
I1504
sS'lyle'
p5445
I5380
sS'reputation'
p5446
I736
sS'manydifferent'
p5447
I6423
sS'enterprise'
p5448
I4180
sS'entertaining'
p5449
I5954
sS'desktops'
p5450
I1074
sS'overpriced'
p5451
I3181
sS'contacted'
p5452
I2290
sS'queen'
p5453
I3321
sS'pops'
p5454
I3080
sS'colors'
p5455
I1190
sS'cakebread'
p5456
I6569
sS'earth'
p5457
I6559
sS'2-years'
p5458
I3899
sS'delivery-'
p5459
I3823
sS'photo'
p5460
I1904
sS'sunglasses'
p5461
I6978
sS'occational'
p5462
I2580
sS'watch'
p5463
I2640
sS'overpraised'
p5464
I4861
sS'blinking'
p5465
I3419
sS'geek'
p5466
I1338
sS'shutting'
p5467
I1348
sS'despite'
p5468
I2326
sS'report'
p5469
I608
sS'frying'
p5470
I5441
sS' <COLON> '
p5471
I927
sS'reinstall'
p5472
I2661
sS'overbearing'
p5473
I4827
sS'excel'
p5474
I2498
sS'whitefish'
p5475
I6497
sS'twice'
p5476
I466
sS'boring'
p5477
I6649
sS'occurance'
p5478
I3711
sS'thanks'
p5479
I3774
sS'motherboard'
p5480
I581
sS'detection'
p5481
I3971
sS'restaraunts'
p5482
I7020
sS'submitted'
p5483
I3162
sS'corrupt'
p5484
I3661
sS'noodles'
p5485
I4323
sS'capacity'
p5486
I2760
sS'michelin'
p5487
I5925
sS'continually'
p5488
I6836
sS'mud'
p5489
I6179
sS'finger'
p5490
I3635
sS'hopefully'
p5491
I2055
sS'weak'
p5492
I2807
sS'however'
p5493
I189
sS'wear'
p5494
I1935
sS'techies'
p5495
I3319
sS'faced'
p5496
I5253
sS'protect'
p5497
I2142
sS'fault'
p5498
I2236
sS'jelly'
p5499
I5180
sS'dv6700'
p5500
I1813
sS'games'
p5501
I852
sS'gamer'
p5502
I2482
sS'faces'
p5503
I6053
sS'expense'
p5504
I1674
sS'frequenting'
p5505
I6829
sS'viruses'
p5506
I1349
sS'trust'
p5507
I3392
sS'panel'
p5508
I2337
sS'2200'
p5509
I1147
sS'bathroom'
p5510
I6021
sS'beef'
p5511
I4721
sS'thetable'
p5512
I3669
sS'binge'
p5513
I6652
sS'been'
p5514
I165
sS'quickly'
p5515
I667
sS'confident'
p5516
I3589
sS'beer'
p5517
I4350
sS'spread'
p5518
I4984
sS'miraculously'
p5519
I6150
sS'expected'
p5520
I1585
sS'containers'
p5521
I4869
sS'search'
p5522
I1115
sS'uncommon'
p5523
I3570
sS'apple.com'
p5524
I2704
sS'teapot'
p5525
I4551
sS'definetly'
p5526
I2338
sS'heartland'
p5527
I4401
sS'dells'
p5528
I1913
sS'n'
p5529
I6801
sS'parched'
p5530
I6135
sS'teachers'
p5531
I1197
sS'stopping'
p5532
I6444
sS'cracked'
p5533
I6239
sS'locekd'
p5534
I3846
sS'dumplings'
p5535
I4664
sS'broth'
p5536
I4322
sS'accessories'
p5537
I3417
sS'expenses'
p5538
I2134
sS'experts'
p5539
I2715
sS'experience'
p5540
I385
sS'babyed'
p5541
I2123
sS'suggest'
p5542
I2362
sS'drawback'
p5543
I1054
sS'manhathan'
p5544
I5420
sS'heeded'
p5545
I4728
sS'uncharged'
p5546
I3628
sS'satellite'
p5547
I562
sS'"-'
p5548
I2381
sS'07/2009'
p5549
I4182
sS'pick'
p5550
I1773
sS'greeted'
p5551
I5383
sS'fridays'
p5552
I4297
sS'characters'
p5553
I5184
sS'groundbreaking'
p5554
I4902
sS'sushimi'
p5555
I6640
sS'shortly'
p5556
I1157
sS'uploading'
p5557
I2322
sS'boxes'
p5558
I7004
sS'hearty'
p5559
I5351
sS'greatest'
p5560
I2796
sS'mother'
p5561
I711
sS'seasonal'
p5562
I5931
sS'laptop'
p5563
I31
sS'bugged'
p5564
I856
sS'transporting'
p5565
I2549
sS'laptob'
p5566
I1278
sS'functionally'
p5567
I2653
sS'vibration'
p5568
I1804
sS'luckly'
p5569
I3703
sS'office-'
p5570
I4684
sS'pharmacy'
p5571
I3806
sS'technological'
p5572
I2837
sS'5d'
p5573
I2311
sS'gave'
p5574
I441
sS'actresses'
p5575
I6700
sS'advances'
p5576
I4148
sS'breaks'
p5577
I1168
sS'spanned'
p5578
I1644
sS'judge'
p5579
I4793
sS'burns'
p5580
I3810
sS'burnt'
p5581
I5800
sS'advanced'
p5582
I2674
sS'apart'
p5583
I1930
sS'gift'
p5584
I825
sS'theapple'
p5585
I2605
sS'50'
p5586
I1868
sS'53'
p5587
I3937
sS'specific'
p5588
I1211
sS'informative'
p5589
I5549
sS'hunk'
p5590
I1503
sS'overrated'
p5591
I3299
sS'hung'
p5592
I2183
sS'mash'
p5593
I5218
sS'proudly'
p5594
I4197
sS'emails'
p5595
I2146
sS'usher'
p5596
I6298
sS'tradional'
p5597
I6454
sS'tutorial'
p5598
I1765
sS'tristate'
p5599
I5098
sS'quiter'
p5600
I6143
sS'ice'
p5601
I4266
sS'everything'
p5602
I321
sS'icy'
p5603
I5331
sS'offices'
p5604
I4112
sS'christmas'
p5605
I2717
sS'bisque'
p5606
I6103
sS'cord'
p5607
I15
sS'core'
p5608
I820
sS'deleted'
p5609
I2049
sS'tour'
p5610
I4055
sS'corn'
p5611
I6019
sS'hsn'
p5612
I2810
sS'discount'
p5613
I1199
sS'dissapointment'
p5614
I5952
sS'explantory'
p5615
I872
sS'security'
p5616
I1027
sS'plug'
p5617
I1321
sS'dinner'
p5618
I4343
sS'plus'
p5619
I240
sS'curry'
p5620
I4977
sS'overheats'
p5621
I3407
sS'froze'
p5622
I528
sS'presence'
p5623
I3413
sS'puke'
p5624
I6518
sS'explain'
p5625
I5709
sS'folders'
p5626
I1453
sS'lags'
p5627
I3948
sS'gig'
p5628
I6257
sS'stuck'
p5629
I1032
sS'gin'
p5630
I4789
sS'extrememly'
p5631
I3882
sS'purposely'
p5632
I3134
sS'l305d'
p5633
I563
sS'head'
p5634
I536
sS'medium'
p5635
I3547
sS'differences'
p5636
I2668
sS'removes'
p5637
I3892
sS'wireless'
p5638
I1203
sS'heat'
p5639
I1994
sS'uncle'
p5640
I4602
sS'removed'
p5641
I1378
sS'medius'
p5642
I3483
sS'portions'
p5643
I4730
sS'versions'
p5644
I2020
sS'blantently'
p5645
I6076
sS'bargain'
p5646
I4377
sS'ruined'
p5647
I5540
sS'g73jh'
p5648
I3716
sS'unboxing'
p5649
I2089
sS'adorn'
p5650
I5390
sS'brightly'
p5651
I6022
sS'sometime'
p5652
I4974
sS'shines'
p5653
I6287
sS'annoying'
p5654
I764
sS'check'
p5655
I1291
sS'miso'
p5656
I6159
sS'nj'
p5657
I5933
sS'     '
p5658
I2159
sS'techs'
p5659
I1482
sS'no'
p5660
I149
sS'commercials'
p5661
I271
sS'when'
p5662
I308
sS'whem'
p5663
I4338
sS'tim'
p5664
I3310
sS'setting'
p5665
I436
sS'papers'
p5666
I899
sS'depot'
p5667
I2058
sS'nt'
p5668
I686
sS'kerosene'
p5669
I4530
sS'picture'
p5670
I1783
sS'reconsider'
p5671
I4777
sS'football'
p5672
I3490
sS'uniformly'
p5673
I4196
sS'experience.the'
p5674
I5633
sS'hieroglyphics'
p5675
I2319
sS'faster'
p5676
I639
sS'serious'
p5677
I2946
sS'stacks'
p5678
I4634
sS'reviews-'
p5679
I5169
sS'punds'
p5680
I552
sS'regulars'
p5681
I6073
sS'waterbug'
p5682
I6024
sS'roe'
p5683
I5091
sS'deliveries'
p5684
I5086
sS'leads'
p5685
I4631
sS'comments'
p5686
I5721
sS'sensitve'
p5687
I3874
sS'recharge'
p5688
I326
sS'itsuperb'
p5689
I6164
sS'2.4ghz'
p5690
I717
sS'environment'
p5691
I2518
sS'charge'
p5692
I7
sS'burners'
p5693
I2320
sS'advantage'
p5694
I266
sS'lahore'
p5695
I4470
sS'thawed'
p5696
I6523
sS'tanks'
p5697
I6086
sS'artwork'
p5698
I2426
sS'cook'
p5699
I1759
sS'roving'
p5700
I4814
sS'cool'
p5701
I958
sS'tosiba'
p5702
I3728
sS'nona'
p5703
I6827
sS'best-'
p5704
I6540
sS'level'
p5705
I2106
sS'posts'
p5706
I5683
sS'brother'
p5707
I1510
sS'standards'
p5708
I4921
sS'quick'
p5709
I1114
sS'pork'
p5710
I4804
sS'slower'
p5711
I2644
sS'trend'
p5712
I2797
sS'decour'
p5713
I6953
sS'comforting'
p5714
I6546
sS'reinstalling'
p5715
I2729
sS'port'
p5716
I1049
sS'drinks'
p5717
I4239
sS'stands'
p5718
I3166
sS'goes'
p5719
I1540
sS'tortelini'
p5720
I4692
sS'water'
p5721
I1401
sS'fluke'
p5722
I5959
sS'entertain'
p5723
I4931
sS'groups'
p5724
I5192
sS'['
p5725
I2938
sS'reformatting'
p5726
I2728
sS'standout'
p5727
I5170
sS'noticeable'
p5728
I4121
sS'healthy'
p5729
I984
sS'pearls'
p5730
I6806
sS'rethink'
p5731
I4913
sS'molto'
p5732
I5575
sS'lingered'
p5733
I6966
sS'noticeably'
p5734
I1076
sS'entrees'
p5735
I4362
sS'navigation'
p5736
I1900
sS'underdeserving'
p5737
I4862
sS'gorgeously'
p5738
I5428
sS'inducing'
p5739
I5157
sS'1st'
p5740
I697
sS'peep'
p5741
I4587
sS'yourself'
p5742
I799
sS'andi'
p5743
I1723
sS'handled'
p5744
I4594
sS'10:15'
p5745
I7044
sS'stated'
p5746
I4137
sS'msn'
p5747
I2306
sS'handles'
p5748
I2124
sS'andy'
p5749
I6638
sS'iphone'
p5750
I339
sS'memory'
p5751
I656
sS'msg'
p5752
I5363
sS'prep'
p5753
I81
sS'today'
p5754
I838
sS'symantec'
p5755
I3556
sS'peices'
p5756
I3257
sS'clicking'
p5757
I1791
sS'neglected'
p5758
I5161
sS'chocolate'
p5759
I4695
sS'drown'
p5760
I3314
sS'ceviche'
p5761
I4662
sS'cases'
p5762
I2365
sS'fuction'
p5763
I1820
sS'edible'
p5764
I6503
sS'thousands'
p5765
I451
sS'boarderline'
p5766
I6429
sS'flagship'
p5767
I4738
sS'kati'
p5768
I5998
sS'corrupted'
p5769
I1358
sS'figure'
p5770
I2032
sS'downfall'
p5771
I2777
sS'critic'
p5772
I5838
sS'dropped'
p5773
I2459
sS'topple'
p5774
I4173
sS'-got'
p5775
I4100
sS'requirements'
p5776
I3073
sS'secured'
p5777
I3700
sS'1'
p5778
I1039
sS'vital'
p5779
I810
sS'fourth'
p5780
I3171
sS'ensure'
p5781
I2941
sS'speaks'
p5782
I6111
sS'secures'
p5783
I1980
sS'etched'
p5784
I6729
sS'unbelievable'
p5785
I6347
sS'crashes'
p5786
I371
sS'huge'
p5787
I1187
sS'granddaughter'
p5788
I4135
sS'eighty'
p5789
I2591
sS'crashed'
p5790
I328
sS'birthday'
p5791
I1105
sS'classroom'
p5792
I780
sS'prooudly'
p5793
I5926
sS'commodity'
p5794
I4176
sS'mgr'
p5795
I1948
sS'stupidly'
p5796
I2614
sS'drumsticks'
p5797
I6491
sS'amuse'
p5798
I5394
sS'inform'
p5799
I1685
sS'ducasse'
p5800
I5600
sS'unfreeze'
p5801
I2930
sS'refund'
p5802
I1337
sS'exclusive'
p5803
I7006
sS'comfort'
p5804
I5595
sS'mainly'
p5805
I575
sS'gigino'
p5806
I4743
sS'blocked'
p5807
I2677
sS'week*-they'
p5808
I3998
sS'appetizers'
p5809
I4905
sS'offers'
p5810
I115
sS'happened'
p5811
I1716
sS'hinting'
p5812
I5885
sS'delighted'
p5813
I5267
sS'term'
p5814
I5293
sS'name'
p5815
I2698
sS'opera'
p5816
I6778
sS'realistic'
p5817
I3606
sS'hiccups'
p5818
I2321
sS'-when'
p5819
I3091
sS'<NUM>'
p5820
I4
sS'catching'
p5821
I5893
sS'adequately'
p5822
I6887
sS'mkii'
p5823
I2312
sS'someplace'
p5824
I6359
sS'attracted'
p5825
I3548
sS'hacked'
p5826
I2586
sS'overflowing'
p5827
I5859
sS'maneuver'
p5828
I3988
sS'--the'
p5829
I6574
sS'attended'
p5830
I5717
sS'tempura'
p5831
I4669
sS'previews'
p5832
I6160
sS'oasis'
p5833
I4448
sS'flyer'
p5834
I7024
sS'gozimas'
p5835
I6271
sS'calories'
p5836
I6316
sS'hong'
p5837
I6803
sS'amma'
p5838
I4685
sS'turn'
p5839
I147
sS'place'
p5840
I255
sS'intalled'
p5841
I2573
sS'discontinued'
p5842
I3281
sS'1000'
p5843
I2634
sS'revenue'
p5844
I4708
sS'clumsy'
p5845
I5614
sS'array'
p5846
I3631
sS'given'
p5847
I1104
sS'district'
p5848
I4723
sS'plastic'
p5849
I1218
sS'cooling'
p5850
I912
sS'masala'
p5851
I6198
sS'white'
p5852
I937
sS'gives'
p5853
I1893
sS'exploring'
p5854
I6823
sS'released'
p5855
I1646
sS'lage'
p5856
I6680
sS'copy'
p5857
I2860
sS'specify'
p5858
I6685
sS'wide'
p5859
I3512
sS'yoshi'
p5860
I6653
sS'unfortunately'
p5861
I1249
sS'require'
p5862
I2437
sS'skiline'
p5863
I6203
sS'r'
p5864
I1410
sS'aesthetic'
p5865
I6193
sS'cards'
p5866
I188
sS'outcome'
p5867
I1941
sS'pre'
p5868
I2737
sS'pro'
p5869
I178
sS'ant'
p5870
I5343
sS'tarte'
p5871
I6147
sS'sells'
p5872
I1519
sS'any'
p5873
I257
sS'batting'
p5874
I6335
sS'prosperity'
p5875
I6341
sS'transcription'
p5876
I3813
sS'dhell'
p5877
I384
sS'ideas'
p5878
I7036
sS'wandered'
p5879
I6332
sS'dining'
p5880
I4353
sS'ideal'
p5881
I2231
sS'delcious'
p5882
I6943
sS'responsibility'
p5883
I2779
sS'strengths'
p5884
I4122
sS'surf'
p5885
I3834
sS'sure'
p5886
I1427
sS'multiple'
p5887
I2200
sS'overcooked'
p5888
I6513
sS'falls'
p5889
I1560
sS'visitors'
p5890
I3378
sS'icon'
p5891
I3656
sS'26th'
p5892
I3092
sS'considered'
p5893
I3397
sS'seafood'
p5894
I4930
sS'proud'
p5895
I2625
sS'hungry'
p5896
I4364
sS'soho'
p5897
I5073
sS'hoboken'
p5898
I6397
sS'hear'
p5899
I4347
sS'senior'
p5900
I1671
sS'quantity'
p5901
I4293
sS'slope'
p5902
I4963
sS'replied'
p5903
I5869
sS'hustled'
p5904
I6265
sS'cheap'
p5905
I788
sS'crutchs'
p5906
I3226
sS'spaces'
p5907
I2227
sS'hack'
p5908
I2647
sS'1300'
p5909
I3496
sS'genius'
p5910
I675
sS'state'
p5911
I2445
sS'wood'
p5912
I6191
sS'lighted'
p5913
I3400
sS'jazz'
p5914
I4371
sS'expectation'
p5915
I295
sS'lighter'
p5916
I673
sS'flavour'
p5917
I6435
sS'trade'
p5918
I190
sS'freaking'
p5919
I141
sS'flickr'
p5920
I3475
sS'pinnacle'
p5921
I6442
sS'aluminum'
p5922
I1845
sS'through'
p5923
I637
sS'pants'
p5924
I1388
sS'ignored'
p5925
I4938
sS'imposing'
p5926
I6633
sS'connections'
p5927
I3035
sS'rma'
p5928
I2289
sS'college'
p5929
I1149
sS'parking'
p5930
I6669
sS'apologies'
p5931
I5271
sS'encouraged'
p5932
I6433
sS'fails'
p5933
I2880
sS'detect'
p5934
I2954
sS'alienware'
p5935
I3312
sS'managing'
p5936
I577
sS'review'
p5937
I2138
sS'definite'
p5938
I5763
sS'outside'
p5939
I817
sS'adore'
p5940
I4291
sS'unappealing'
p5941
I6273
sS'arrival'
p5942
I5063
sS'5:30'
p5943
I6190
sS'25'
p5944
I1509
sS'comp'
p5945
I3724
sS'definelty'
p5946
I2113
sS'diners'
p5947
I5238
sS'chaats'
p5948
I5758
sS'come'
p5949
I1819
sS'postage'
p5950
I1375
sS'reaction'
p5951
I2128
sS'poivre'
p5952
I4318
sS'solidworks'
p5953
I3393
sS'gimmicks'
p5954
I6110
sS'quiet'
p5955
I890
sS'contract'
p5956
I6222
sS'boiling'
p5957
I7053
sS'duty'
p5958
I1896
sS'6'
p5959
I1793
sS'afterwards'
p5960
I6028
sS'color'
p5961
I957
sS'pot'
p5962
I5078
sS'promises'
p5963
I3673
sS'insist'
p5964
I1174
sS'sampling'
p5965
I5510
sS'60'
p5966
I2301
sS'65'
p5967
I4037
sS'69'
p5968
I3938
sS'turkey'
p5969
I5685
sS'peaceful'
p5970
I6741
sS'cords'
p5971
I1787
sS'hardly'
p5972
I728
sS'ravioli'
p5973
I4901
sS'500'
p5974
I2421
sS'engine'
p5975
I3377
sS'direction'
p5976
I1343
sS'tasteless'
p5977
I5148
sS'eaters'
p5978
I5361
sS'careful'
p5979
I2725
sS'paying'
p5980
I373
sS'myself'
p5981
I1899
sS'mount'
p5982
I5024
sS'cash'
p5983
I1708
sS'shops'
p5984
I2682
sS'unsatisfactory'
p5985
I3614
sS'couples'
p5986
I6835
sS'good'
p5987
I20
sS'paratha'
p5988
I6388
sS'erroneously'
p5989
I5772
sS'vivid'
p5990
I2831
sS'alphabet'
p5991
I4965
sS'granted'
p5992
I1072
sS'locking'
p5993
I3176
sS'trip'
p5994
I514
sS'html'
p5995
I2531
sS'buys'
p5996
I5057
sS'frequented'
p5997
I5528
sS'events'
p5998
I2851
sS'week'
p5999
I858
sS'tipsy'
p6000
I5682
sS'downloads'
p6001
I2144
sS'driver'
p6002
I1095
sS'drives'
p6003
I1762
sS'devoid'
p6004
I5730
sS'decently'
p6005
I3822
sS'delicate'
p6006
I5531
sS'statue'
p6007
I4892
sS'changing'
p6008
I5016
sS'6.95'
p6009
I6903
sS'experine'
p6010
I470
sS'delectable'
p6011
I6091
sS'46th'
p6012
I5209
sS'without'
p6013
I180
sS'components'
p6014
I1557
sS'model'
p6015
I175
sS'nb'
p6016
I2881
sS'justify'
p6017
I1335
sS'clog'
p6018
I3884
sS'techy'
p6019
I3235
sS'guided'
p6020
I5461
sS'kill'
p6021
I4645
sS'refills'
p6022
I5403
sS'ny'
p6023
I4355
sS'rose'
p6024
I5617
sS'seems'
p6025
I812
sS'reccomend'
p6026
I1563
sS'blog'
p6027
I3376
sS'lets'
p6028
I2874
sS'quality-'
p6029
I5773
sS'sampler'
p6030
I5472
sS'flashing'
p6031
I158
sS'styles'
p6032
I5111
sS'fridge'
p6033
I6818
sS'randomely'
p6034
I4107
sS'touchpad'
p6035
I708
sS'styled'
p6036
I6390
sS'accepted'
p6037
I1952
sS'correcting'
p6038
I3053
sS'furniture'
p6039
I6185
sS'photographs'
p6040
I1300
sS'reduces'
p6041
I2342
sS'buddies'
p6042
I5775
sS'donations'
p6043
I3650
sS'tower'
p6044
I2271
sS'shunned'
p6045
I3126
sS'maximize'
p6046
I5704
sS'overheated'
p6047
I2262
sS'competition'
p6048
I2315
sS'respect'
p6049
I1005
sS'portables'
p6050
I933
sS'provided'
p6051
I5247
sS'slice'
p6052
I5164
sS'highest'
p6053
I2316
sS'slick'
p6054
I545
sS'stops'
p6055
I1854
sS'reallocating'
p6056
I5706
sS'1222nr'
p6057
I30
sS'hipster'
p6058
I6275
sS'nigiri'
p6059
I5520
sS'provides'
p6060
I1457
sS'provider'
p6061
I3851
sS'quitting'
p6062
I2815
sS'signifant'
p6063
I4008
sS'communicate'
p6064
I3191
sS'polite'
p6065
I3430
sS'lcd'
p6066
I2243
sS'occured'
p6067
I3064
sS'on'
p6068
I148
sS'ok'
p6069
I526
sS'ibook'
p6070
I3559
sS'og'
p6071
I6853
sS'of'
p6072
I19
sS'discussed'
p6073
I4117
sS'-result'
p6074
I6720
sS'shrimp'
p6075
I5092
sS'informing'
p6076
I473
sS'pistachio'
p6077
I5277
sS'oz'
p6078
I5260
sS'ow'
p6079
I5966
sS'ou'
p6080
I5269
sS'2x2'
p6081
I3712
sS'os'
p6082
I1265
sS'or'
p6083
I183
sS'wontons'
p6084
I5545
sS'ladies'
p6085
I4253
sS'cambridge'
p6086
I6690
sS'gari'
p6087
I5402
sS'communication'
p6088
I1131
sS'clams'
p6089
I5490
sS'determine'
p6090
I1062
sS'weeknight'
p6091
I5652
sS'buds'
p6092
I4356
sS'unisex'
p6093
I6850
sS'stickler'
p6094
I6352
sS'there'
p6095
I272
sS'strict'
p6096
I6870
sS'a$$'
p6097
I1810
sS'energy'
p6098
I3097
sS'treat'
p6099
I3922
sS'compatible-'
p6100
I3861
sS'alain'
p6101
I5599
sS'amongst'
p6102
I5803
sS'jus'
p6103
I4427
sS'costco'
p6104
I6615
sS'23.95'
p6105
I5813
sS'longer'
p6106
I193
sS'1024'
p6107
I2299
sS'grass'
p6108
I6245
sS'2.66ghz'
p6109
I3525
sS'strongly'
p6110
I3279
sS'taste'
p6111
I1829
sS'tasty'
p6112
I4206
sS'acer'
p6113
I789
sS'sommlier'
p6114
I4577
sS'tasts'
p6115
I5072
sS'incorrect'
p6116
I3968
sS'stumbled'
p6117
I4249
sS'deserve'
p6118
I4724
sS'rubber'
p6119
I213
sS'5'
p6120
I700
sS'fiddled'
p6121
I3849
sS'trash'
p6122
I2093
sS'dismayed'
p6123
I6799
sS'thirsty'
p6124
I7021
sS'requested'
p6125
I3815
sS'separate'
p6126
I2204
sS'makhani'
p6127
I6573
sS'reccommend'
p6128
I5667
sS'cordless'
p6129
I2889
sS'flower'
p6130
I5911
sS'included'
p6131
I1643
sS'recimmend'
p6132
I4381
sS'booked'
p6133
I7033
sS'calls'
p6134
I2080
sS'wife'
p6135
I1776
sS'invest'
p6136
I2597
sS'wifi'
p6137
I2218
sS'curve'
p6138
I3185
sS'websites'
p6139
I2394
sS'drank'
p6140
I4714
sS'directory'
p6141
I6509
sS'platter'
p6142
I5439
sS'all'
p6143
I151
sS'sicilian'
p6144
I6278
sS'repair*-annoyed'
p6145
I3002
sS'chinese'
p6146
I4539
sS'kensington'
p6147
I7041
sS'lack'
p6148
I2467
sS'abit'
p6149
I1161
sS'ala'
p6150
I6654
sS'disc'
p6151
I517
sS'parmesan'
p6152
I6378
sS'dish'
p6153
I4211
sS'follow'
p6154
I3944
sS'disk'
p6155
I1372
sS'hmmm'
p6156
I3599
sS'ingrediants'
p6157
I6715
sS'acting'
p6158
I1864
sS'thursday'
p6159
I5762
sS'program'
p6160
I556
sS'siblings'
p6161
I3262
sS'1080p'
p6162
I2083
sS'fax'
p6163
I1871
sS'woman'
p6164
I5273
sS'worse'
p6165
I2574
sS'far'
p6166
I752
sS'fat'
p6167
I5317
sS'focus'
p6168
I6590
sS'worst'
p6169
I967
sS'awful'
p6170
I1238
sS'sony'
p6171
I755
sS'and'
p6172
I11
sS'ranting'
p6173
I6328
sS'becase'
p6174
I1535
sS'list'
p6175
I3734
sS'grandfather'
p6176
I6130
sS'booting'
p6177
I2752
sS'chilaquiles'
p6178
I5309
sS'ten'
p6179
I2993
sS'tea'
p6180
I3950
sS'tee'
p6181
I6762
sS'tey'
p6182
I3651
sS'rate'
p6183
I1696
sS'design'
p6184
I893
sS'functioning'
p6185
I2334
sS'cheeses'
p6186
I5783
sS'what'
p6187
I381
sS'imported'
p6188
I5200
sS'sub'
p6189
I1847
sS'sun'
p6190
I5504
sS'sum'
p6191
I4780
sS'crust'
p6192
I4513
sS'anniversary'
p6193
I4287
sS'overload'
p6194
I1946
sS'version'
p6195
I399
sS'attitudes'
p6196
I6054
sS'row'
p6197
I5100
sS'multitude'
p6198
I4057
sS'condensed'
p6199
I5044
sS'unprofessional'
p6200
I6589
sS'certainly'
p6201
I3696
sS'personable'
p6202
I5474
sS'chongqing'
p6203
I5552
sS'difficulty'
p6204
I3619
sS'pizzerias'
p6205
I4879
sS'cucumbers'
p6206
I5941
sS'horrified'
p6207
I4533
sS'options'
p6208
I2278
sS'conditioning'
p6209
I6982
sS'sticking'
p6210
I1021
sS'headache'
p6211
I2196
sS'crackling'
p6212
I6220
sS'screens'
p6213
I2924
sS'busboy'
p6214
I6283
sS'proceed'
p6215
I2771
sS'quasi'
p6216
I6527
sS'permanently'
p6217
I3372
sS'minor'
p6218
I2869
sS'flat'
p6219
I2763
sS'flaw'
p6220
I986
sS'knows'
p6221
I1728
sS'bumped'
p6222
I6361
sS'grabbing'
p6223
I4175
sS'dinnerbroker'
p6224
I6026
sS'basically'
p6225
I3561
sS'hissed'
p6226
I7037
sS'known'
p6227
I3025
sS'glad'
p6228
I1406
sS'equation'
p6229
I6661
sS'tapioca'
p6230
I6805
sS'caveat'
p6231
I1209
sS'v'
p6232
I2643
sS'bruschettas'
p6233
I5233
sS'atrocious'
p6234
I4651
sS'challenging'
p6235
I4077
sS'joints'
p6236
I4520
sS'imitation'
p6237
I6381
sS'it(laptop'
p6238
I2447
sS'airplane'
p6239
I4061
sS'court'
p6240
I6824
sS'rather'
p6241
I1309
sS'breaking'
p6242
I1038
sS'<PAD>'
p6243
I0
sS'occasionally'
p6244
I370
sS'explains'
p6245
I2621
sS'goat'
p6246
I4311
sS'pongsri'
p6247
I6038
sS'simplicity'
p6248
I3090
sS'sandwich'
p6249
I4434
sS'okay'
p6250
I3169
sS'nebbiolo'
p6251
I5451
sS'weaknesses'
p6252
I4124
sS'lighting'
p6253
I3918
sS'adventure'
p6254
I3751
sS'proclaimed'
p6255
I490
sS'short'
p6256
I1360
sS'5.x'
p6257
I3832
sS'supervision'
p6258
I3978
sS'quarters-'
p6259
I6440
sS'shore'
p6260
I4911
sS'halibut'
p6261
I6047
sS'encased'
p6262
I211
sS'turnover'
p6263
I5216
sS'developed'
p6264
I3110
sS'luxurys'
p6265
I3591
sS'1.95'
p6266
I6154
sS'avenue'
p6267
I4619
sS'outperforms'
p6268
I4133
sS'style'
p6269
I974
sS'blast'
p6270
I6679
sS'susceptible'
p6271
I1833
sS'strange'
p6272
I1023
sS'teens'
p6273
I6349
sS'verginia'
p6274
I2401
sS'might'
p6275
I1051
sS'prodcut'
p6276
I2222
sS'return'
p6277
I475
sS'generously'
p6278
I4357
sS'consisent'
p6279
I6594
sS'cannoli'
p6280
I6308
sS'largest'
p6281
I2587
sS'speechless'
p6282
I3607
sS'hunted'
p6283
I6666
sS'adventurous'
p6284
I5027
sS'bigger'
p6285
I1050
sS'impressive'
p6286
I3593
sS'playfull'
p6287
I6595
sS'nephews'
p6288
I614
sS'bestbuy'
p6289
I3346
sS'accommodates'
p6290
I4097
sS'deffinately'
p6291
I1562
sS'malfunction'
p6292
I913
sS'weight'
p6293
I870
sS'needless'
p6294
I123
sS'generation'
p6295
I5334
sS'expect'
p6296
I2209
sS'alcohol'
p6297
I6451
sS'wondered'
p6298
I4490
sS'health'
p6299
I5881
sS'hill'
p6300
I6626
sS'shipment'
p6301
I3620
sS'1.you'
p6302
I4110
sS'boldness'
p6303
I6434
sS'friday'
p6304
I2291
sS'gb(though'
p6305
I2372
sS'experimenting'
p6306
I4846
sS'attendant'
p6307
I5866
sS'sidewalk'
p6308
I5344
sS'lag'
p6309
I5713
sS'thrown'
p6310
I1659
sS'corriander'
p6311
I4971
sS'seperately'
p6312
I1724
sS'solidly'
p6313
I3435
sS'trackpad'
p6314
I1382
sS'dine'
p6315
I4341
sS'seeming'
p6316
I4550
sS'feel'
p6317
I1082
sS'fancy'
p6318
I1167
sS'feet'
p6319
I1832
sS'defects'
p6320
I3985
sS'blank'
p6321
I2102
sS'bland'
p6322
I4468
sS'illustrating'
p6323
I2389
sS'esay'
p6324
I1496
sS'treked'
p6325
I6027
sS'gourmet'
p6326
I5033
sS'leading'
p6327
I1591
sS'rails'
p6328
I1981
sS'scallion'
p6329
I5353
sS'passed'
p6330
I2913
sS'finances'
p6331
I2132
sS'store'
p6332
I676
sS'gps'
p6333
I4150
sS'option'
p6334
I3889
sS'relieved'
p6335
I3585
sS'hotel'
p6336
I4062
sS'hesititate'
p6337
I4403
sS'luckily'
p6338
I2583
sS'bouche'
p6339
I5395
sS'convinced'
p6340
I3440
sS'king'
p6341
I6642
sS'kind'
p6342
I926
sS'double'
p6343
I5897
sS'harman'
p6344
I3854
sS'dank'
p6345
I5767
sS'dang'
p6346
I1975
sS'stale'
p6347
I5569
sS"'ve"
p6348
I164
sS'risky'
p6349
I4687
sS"did't"
p6350
I5541
sS'jsut'
p6351
I6521
sS'outstanding'
p6352
I2361
sS"w'burg"
p6353
I5878
sS'suspicious'
p6354
I3688
sS'gigondas'
p6355
I6123
sS'alike'
p6356
I2716
sS'cleaned'
p6357
I2544
sS'tandoori'
p6358
I4584
sS'nights'
p6359
I4842
sS'moist'
p6360
I5429
sS'sandwiches'
p6361
I5440
sS'finding'
p6362
I2995
sS'unremarkable'
p6363
I6564
sS'fresca'
p6364
I6934
sS'added'
p6365
I353
sS'bands'
p6366
I6041
sS'inconvenience'
p6367
I3916
sS'reach'
p6368
I2875
sS'brioche'
p6369
I6599
sS'75'
p6370
I2376
sS'74'
p6371
I3657
sS'70'
p6372
I6496
sS'nothing'
p6373
I137
sS'windows'
p6374
I296
sS'traditional'
p6375
I4224
sS'notch'
p6376
I1760
sS'institutions'
p6377
I4856
sS'cds'
p6378
I1949
sS'font'
p6379
I1814
sS'costing'
p6380
I1856
sS'unusable'
p6381
I1690
sS'rebooting'
p6382
I2727
sS'starters'
p6383
I1918
sS'hip'
p6384
I6083
sS'his'
p6385
I1283
sS'hit'
p6386
I4981
sS'fastest'
p6387
I5711
sS'mahal'
p6388
I4860
sS'him'
p6389
I2189
sS'sources'
p6390
I3760
sS'activity'
p6391
I2456
sS'wrote'
p6392
I3705
sS'bars'
p6393
I2905
sS'art'
p6394
I2961
sS'bart'
p6395
I4741
sS'dump'
p6396
I1539
sS'certin'
p6397
I310
sS'raddichio'
p6398
I5802
sS'dumb'
p6399
I2707
sS'are'
p6400
I210
sS'2.3'
p6401
I2642
sS'2.1'
p6402
I1315
sS'2.0'
p6403
I3122
sS'arm'
p6404
I2985
sS'2.5'
p6405
I2821
sS'2.4'
p6406
I2491
sS'ups'
p6407
I1988
sS'crisp'
p6408
I1225
sS'ichat'
p6409
I117
sS'creme'
p6410
I4524
sS'various'
p6411
I2675
sS'numerous'
p6412
I432
sS'rosa'
p6413
I4590
sS'latin'
p6414
I6494
sS'recently'
p6415
I2308
sS'creating'
p6416
I1328
sS'initially'
p6417
I3436
sS'sold'
p6418
I1992
sS'attention'
p6419
I2612
sS'anykind'
p6420
I2892
sS'competent'
p6421
I5906
sS'bar-'
p6422
I771
sS'c'
p6423
I1412
sS'blazer'
p6424
I5283
sS'hesitant'
p6425
I6553
sS'became'
p6426
I2535
sS'finds'
p6427
I5108
sS'reasons'
p6428
I492
sS'sweet'
p6429
I1934
sS'improper'
p6430
I6768
sS'village'
p6431
I5446
sS'rave'
p6432
I5955
sS'slots'
p6433
I3368
sS'crispy'
p6434
I4512
sS'simpler'
p6435
I749
sS'ps'
p6436
I3952
sS'duo'
p6437
I4372
sS'overlook'
p6438
I6392
sS'due'
p6439
I1139
sS'appears'
p6440
I3455
sS'pc'
p6441
I125
sS'sakagura'
p6442
I4819
sS'brick'
p6443
I3584
sS'po'
p6444
I6201
sS'pm'
p6445
I3194
sS'flight'
p6446
I2469
sS'buck'
p6447
I5193
sS'transferring'
p6448
I2245
sS'slideshow'
p6449
I835
sS'demand'
p6450
I3136
sS'instructor'
p6451
I2959
sS'thirty'
p6452
I6908
sS'frozen'
p6453
I2923
sS'warrant'
p6454
I4948
sS'evaluated'
p6455
I5625
sS'homework'
p6456
I3521
sS'garantuan'
p6457
I4329
sS'obtrusive'
p6458
I3819
sS'rip'
p6459
I3837
sS'disappointing'
p6460
I1306
sS'frantic'
p6461
I5609
sS'rig'
p6462
I3820
sS'rid'
p6463
I2509
sS'reprogram'
p6464
I2712
sS'shirt'
p6465
I6763
sS'back,,,,,eventually'
p6466
I1246
sS'9'
p6467
I551
sS'higher'
p6468
I1556
sS'arrives'
p6469
I5620
sS'unrepaired'
p6470
I3139
sS'cabernet'
p6471
I6570
sS'holidays'
p6472
I6644
sS'anypne'
p6473
I3401
sS'arrived'
p6474
I1615
sS'robust'
p6475
I3840
sS'weird'
p6476
I962
sS'built'
p6477
I1123
sS'idvd'
p6478
I3258
sS'lower'
p6479
I2130
sS'noodle'
p6480
I5252
sS'yokocho'
p6481
I4820
sS'emachine'
p6482
I1255
sS'anybody'
p6483
I2483
sS'analysis'
p6484
I3924
sS'edgy'
p6485
I3061
sS'edge'
p6486
I219
sS'machinery'
p6487
I2275
sS'stating'
p6488
I2211
sS'chosing'
p6489
I6766
sS'know'
p6490
I217
sS'ergonomic'
p6491
I2066
sS'competitive'
p6492
I2809
sS'questions'
p6493
I2776
sS'retired'
p6494
I2958
sS'cabaret'
p6495
I5658
sS'tables'
p6496
I4560
sS'loading'
p6497
I3364
sS'chaat'
p6498
I5754
sS'untasteful'
p6499
I4792
sS'tablet'
p6500
I3797
sS'observant'
p6501
I1045
sS'workers'
p6502
I4407
sS'likeable'
p6503
I5666
sS'highlighting'
p6504
I5961
sS'complaint'
p6505
I1568
sS'complains'
p6506
I6227
sS'dvds'
p6507
I2424
sS'homeschool'
p6508
I2387
sS'unlimited'
p6509
I5411
sS'verion'
p6510
I2997
sS'promptly.the'
p6511
I6733
sS'skeptical'
p6512
I4727
sS'shaped'
p6513
I4123
sS'admittedly'
p6514
I5751
sS'shabu'
p6515
I5592
sS'ignore'
p6516
I4676
sS'unstable'
p6517
I2391
sS'essential'
p6518
I1469
sS'crapping'
p6519
I4059
sS'stagnating'
p6520
I5237
sS'pretension'
p6521
I5691
sS'sauces'
p6522
I5492
sS'sized'
p6523
I1879
sS'gradually'
p6524
I999
sS'pros'
p6525
I2629
sS'innovation'
p6526
I1326
sS'porridge'
p6527
I4445
sS'bartender'
p6528
I4569
sS'jumps'
p6529
I2833
sS'refused'
p6530
I651
sS'0900'
p6531
I1144
sS'refuses'
p6532
I3778
sS'projector'
p6533
I84
sS'raucous'
p6534
I6256
sS'completing'
p6535
I3117
sS'virus'
p6536
I415
sS'range'
p6537
I1586
sS'greets'
p6538
I4202
sS'fantasic'
p6539
I4098
sS'complimentary'
p6540
I5149
sS'wanna'
p6541
I6269
sS'clubhouse'
p6542
I5455
sS'plethora'
p6543
I2836
sS'mommy'
p6544
I4582
sS'specjal'
p6545
I6618
sS'moshphere'
p6546
I5766
sS'kielbasa'
p6547
I6383
sS'extraordinary'
p6548
I6211
sS'impressed'
p6549
I1110
sS'lonk'
p6550
I5480
sS'question'
p6551
I2525
sS'long'
p6552
I292
sS'impresses'
p6553
I6485
sS'xps'
p6554
I968
sS'jeckll'
p6555
I6996
sS'files'
p6556
I524
sS'mountains'
p6557
I3458
sS'plunge'
p6558
I1925
sS'filet'
p6559
I4711
sS'skewers'
p6560
I4440
sS'criteria'
p6561
I3682
sS'girlfriends'
p6562
I5561
sS'crank'
p6563
I3920
sS'problem(after'
p6564
I1063
sS'montparnasse'
p6565
I4429
sS'raising'
p6566
I2526
sS'fries'
p6567
I5195
sS'her(odd'
p6568
I4559
sS'shooed'
p6569
I7009
sS'highlight'
p6570
I6412
sS'z'
p6571
I4228
sS'called'
p6572
I498
sS'priviledge'
p6573
I505
sS'associated'
p6574
I1772
sS'durrable'
p6575
I4158
sS'stick'
p6576
I1825
sS'shortcuts'
p6577
I3566
sS'drip'
p6578
I6464
sS'associates'
p6579
I4156
sS'rally'
p6580
I5006
sS'rainy'
p6581
I6205
sS'lemon'
p6582
I797
sS'grp'
p6583
I6225
sS'saffron'
p6584
I6926
sS'defrags'
p6585
I547
sS'3.25'
p6586
I6459
sS'nice'
p6587
I1256
sS'users'
p6588
I1226
sS'smitten'
p6589
I6153
sS'problems'
p6590
I36
sS'helping'
p6591
I3307
sS'meaning'
p6592
I1960
sS'allowing'
p6593
I5463
sS'dals'
p6594
I4888
sS'happier'
p6595
I1107
sS'vice'
p6596
I3219
sS'lafayette'
p6597
I5956
sS'beers'
p6598
I4688
sS'scroll'
p6599
I2765
sS'once'
p6600
I405
sS'sometimes-'
p6601
I6425
sS'teodora'
p6602
I4195
sS'issued'
p6603
I2292
sS'steve'
p6604
I3648
sS'adjustment'
p6605
I1310
sS'issues'
p6606
I813
sS'shanghai'
p6607
I4737
sS'stable'
p6608
I92
sS'include'
p6609
I1500
sS'waiters'
p6610
I4210
sS'wished'
p6611
I5648
sS'ascer'
p6612
I2811
sS'artery'
p6613
I6058
sS'drinking'
p6614
I5681
sS'dv9000'
p6615
I2158
sS'bistros'
p6616
I4919
sS'-called'
p6617
I1741
sS'notes'
p6618
I2448
sS'underscores'
p6619
I573
sS'deals'
p6620
I4497
sS'warranties'
p6621
I2095
sS'dealt'
p6622
I3365
sS'noted'
p6623
I3554
sS'concluded'
p6624
I6738
sS'smaller'
p6625
I672
sS'goodies'
p6626
I1778
sS'ripped'
p6627
I5903
sS'frisco'
p6628
I4817
sS'traveling'
p6629
I2510
sS'ummm'
p6630
I6306
sS'unavailable'
p6631
I4955
sS'showcase'
p6632
I6367
sS'ambiance-'
p6633
I4502
sS'networks'
p6634
I3516
sS'waiting'
p6635
I1859
sS'refilled'
p6636
I6837
sS'cozy'
p6637
I3710
sS'degree'
p6638
I3809
sS'desired'
p6639
I2669
sS'explore'
p6640
I2252
sS'sexy'
p6641
I4770
sS'scrapped'
p6642
I6718
sS'talked'
p6643
I1570
sS'adjusts'
p6644
I3896
sS'spiced'
p6645
I5812
sS'leaving'
p6646
I5101
sS'spices'
p6647
I6343
sS'snobby'
p6648
I5901
sS'apple'
p6649
I277
sS'heart'
p6650
I1576
sS'app'
p6651
I2457
sS'apt'
p6652
I5408
sS'duck'
p6653
I4471
sS'bindings'
p6654
I2398
sS'redo'
p6655
I2224
sS'pxe'
p6656
I2212
sS'use'
p6657
I99
sS'feb'
p6658
I3984
sS'usb'
p6659
I302
sS'iced'
p6660
I6418
sS'masaman'
p6661
I6119
sS'frog'
p6662
I5179
sS'few'
p6663
I387
sS'possession'
p6664
I960
sS'clever'
p6665
I226
sS'impress'
p6666
I5085
sS'14.00'
p6667
I5566
sS'recount'
p6668
I2684
sS'women'
p6669
I6495
sS'annoy'
p6670
I3287
sS'anywhere'
p6671
I1502
sS'aweful'
p6672
I6783
sS'performed'
p6673
I3193
sS'proprietary'
p6674
I3111
sS'patron'
p6675
I6844
sS'tax'
p6676
I1178
sS'tad'
p6677
I3738
sS'half-'
p6678
I2340
sS' <COMMA> '
p6679
I56
sS'tag'
p6680
I1263
sS'something'
p6681
I597
sS'tab'
p6682
I2333
sS'tal'
p6683
I6447
sS'tan'
p6684
I4962
sS'tao'
p6685
I5628
sS'onions'
p6686
I6344
sS'tai'
p6687
I5675
sS'taj'
p6688
I4859
sS'united'
p6689
I2562
sS'memorize'
p6690
I2256
sS'sit'
p6691
I1983
sS'six'
p6692
I2926
sS'patronize'
p6693
I5908
sS'cabbies'
p6694
I5213
sS'instead'
p6695
I1037
sS'memoir'
p6696
I3261
sS'typewriter'
p6697
I2234
sS'attend'
p6698
I4702
sS'abuse'
p6699
I2061
sS'wrist'
p6700
I2732
sS'ethnic'
p6701
I5929
sS'purely'
p6702
I4378
sS'light'
p6703
I154
sS'interrupted'
p6704
I5883
sS'sculptured'
p6705
I6704
sS'honestly'
p6706
I487
sS'crawling'
p6707
I2443
sS'martini'
p6708
I4366
sS'stamped'
p6709
I2037
sS'minnow'
p6710
I5684
sS'knowledgable'
p6711
I5308
sS'mojito'
p6712
I4650
sS'looks'
p6713
I2003
sS'superior'
p6714
I2016
sS'permanent'
p6715
I2843
sS'choose'
p6716
I2557
sS'covered'
p6717
I467
sS'bye'
p6718
I3684
sS'crowds'
p6719
I4957
sS'jukebox'
p6720
I6776
sS'crash'
p6721
I740
sS'flour'
p6722
I5201
sS'practice'
p6723
I1465
sS'understood'
p6724
I3518
sS'fingerprint'
p6725
I1093
sS'worlds'
p6726
I2559
sS'panang'
p6727
I4488
sS'edit'
p6728
I1999
sS'cosmetically'
p6729
I3740
sS'fuzz'
p6730
I3921
sS'trap'
p6731
I5415
sS'bills'
p6732
I5350
sS'deegan'
p6733
I6467
sS'related'
p6734
I2817
sS'apppetizers'
p6735
I6252
sS'temporaly'
p6736
I1805
sS'suite'
p6737
I281
sS'our'
p6738
I681
sS'80'
p6739
I1911
sS'out'
p6740
I258
sS'category'
p6741
I5832
sS'cocktail'
p6742
I5671
sS'yellowtail'
p6743
I5937
sS'performs'
p6744
I2298
sS'disapointed'
p6745
I3075
sS'o.k'
p6746
I5077
sS'thius'
p6747
I6214
sS'ipod'
p6748
I702
sS'o.g'
p6749
I4683
sS'promptly'
p6750
I1395
sS'york'
p6751
I4555
sS"i'ts"
p6752
I3280
sS'rejoice'
p6753
I6663
sS'anyhow'
p6754
I4005
sS'organic'
p6755
I6713
sS'g'
p6756
I2686
sS'conversation'
p6757
I4840
sS'4th'
p6758
I1686
sS'hence'
p6759
I3018
sS'bulky'
p6760
I1640
sS'coloful'
p6761
I4130
sS'steamy'
p6762
I4791
sS'prixe'
p6763
I6393
sS'indistinguished'
p6764
I5815
sS'accent'
p6765
I1284
sS'priority'
p6766
I2147
sS'their'
p6767
I499
sS'1500'
p6768
I2385
sS'650'
p6769
I3402
sS'siam'
p6770
I6930
sS'boil'
p6771
I3598
sS'muggy'
p6772
I4896
sS'shell'
p6773
I4438
sS'165.00'
p6774
I3910
sS'shelf'
p6775
I1489
sS'diminish'
p6776
I3511
sS'july'
p6777
I786
sS'liquid'
p6778
I3412
sS'sorly'
p6779
I3074
sS'isolation'
p6780
I1580
sS'see'
p6781
I1116
sS'limiting'
p6782
I1297
sS'dynamo'
p6783
I945
sS'mezzanine'
p6784
I6319
sS'1.5'
p6785
I826
sS'clip'
p6786
I2960
sS'corona'
p6787
I5067
sS'host'
p6788
I4746
sS'unbearable'
p6789
I4839
sS'afraid'
p6790
I3243
sS'angle'
p6791
I4172
sS'allergies'
p6792
I6395
sS'oozing'
p6793
I6373
sS'bagel'
p6794
I4704
sS'ahold'
p6795
I3975
sS'which'
p6796
I57
sS'-stay'
p6797
I2221
sS'fetish'
p6798
I6795
sS'='
p6799
I2794
sS'unbearably'
p6800
I6637
sS'who'
p6801
I906
sS'snacking'
p6802
I5930
sS'digestive'
p6803
I4831
sS'why'
p6804
I488
sS'freindly'
p6805
I5871
sS'refreshing'
p6806
I5857
sS'looked'
p6807
I609
sS'veyr'
p6808
I6480
sS'diagnostics'
p6809
I2378
sS'bulging'
p6810
I2900
sS'please'
p6811
I2182
sS'agreed'
p6812
I3699
sS'longevity'
p6813
I1018
sS'technician'
p6814
I507
sS'planning'
p6815
I3084
sS'seaweed'
p6816
I5272
sS'utter'
p6817
I5594
sS'chicken'
p6818
I4209
sS'feat'
p6819
I5225
sS'pleased'
p6820
I980
sS'leg'
p6821
I1966
sS'ear'
p6822
I4799
sS'6000'
p6823
I3248
sS'craziness'
p6824
I2872
sS'operational'
p6825
I1530
sS'surroundings'
p6826
I6659
sS'combo'
p6827
I5500
sS'local'
p6828
I2929
sS'demonstrated'
p6829
I2480
sS'cube'
p6830
I6697
sS'fabulous'
p6831
I2237
sS'skimp'
p6832
I5302
sS'watching'
p6833
I946
sS'ones'
p6834
I177
sS'stars'
p6835
I1003
sS'words'
p6836
I2229
sS'bluray'
p6837
I1235
sS'chips'
p6838
I5537
sS'tatsu'
p6839
I6375
sS'ghetto'
p6840
I6476
sS'married'
p6841
I5291
sS'view'
p6842
I2503
sS'knowing'
p6843
I3403
sS'inventive'
p6844
I5689
sS'knowlede'
p6845
I2071
sS'artsy'
p6846
I6116
sS'cold'
p6847
I5071
sS'noticicing'
p6848
I6333
sS'closer'
p6849
I4302
sS'closes'
p6850
I4608
sS'cole'
p6851
I6188
sS'meatballs'
p6852
I5700
sS'superb'
p6853
I6507
sS'favor'
p6854
I1537
sS'closed'
p6855
I2861
sS'tranferring'
p6856
I3731
sS'frustrated'
p6857
I690
sS'bought'
p6858
I24
sS'ability'
p6859
I3839
sS'opening'
p6860
I669
sS'joy'
p6861
I1505
sS'beverages'
p6862
I4958
sS'amex'
p6863
I4597
sS'job'
p6864
I1816
sS'joe'
p6865
I4783
sS'l455d'
p6866
I2951
sS'april'
p6867
I868
sS'bronx'
p6868
I4506
sS'mushroom(third'
p6869
I5333
sS'wall'
p6870
I3045
sS'walk'
p6871
I4296
sS'packaging'
p6872
I3943
sS'table'
p6873
I1971
sS'.--'
p6874
I5567
sS'trays'
p6875
I5174
sS'intitally'
p6876
I6648
sS'insde'
p6877
I5505
sS'i.e.'
p6878
I5217
sS'decent'
p6879
I2788
sS'charts'
p6880
I3701
sS'responds'
p6881
I857
sS'literal'
p6882
I6897
sS'parmesean'
p6883
I5640
sS'bby'
p6884
I1330
sS'naples'
p6885
I6018
sS'bbq'
p6886
I4508
sS'mike'
p6887
I5589
sS'nickel'
p6888
I395
sS'painted'
p6889
I4915
sS'lambchops'
p6890
I5381
sS'bruscetta'
p6891
I5621
sS'crappy'
p6892
I3993
sS'ensuring'
p6893
I6301
sS'last'
p6894
I965
sS'present'
p6895
I1106
sS'unlike'
p6896
I1910
sS'vanilla'
p6897
I6725
sS'choices'
p6898
I4307
sS'cursor'
p6899
I3152
sS'stunning'
p6900
I3665
sS'bravissimo'
p6901
I6477
sS'wild'
p6902
I4734
sS'barely'
p6903
I301
sS'goodness'
p6904
I900
sS'thus'
p6905
I2495
sS'dual'
p6906
I186
sS'lightweight'
p6907
I1285
sS'ave'
p6908
I4295
sS'toninos'
p6909
I7042
sS'perhaps'
p6910
I4415
sS'vintage'
p6911
I6761
sS'waitresses'
p6912
I5708
sS'cross'
p6913
I5118
sS'member'
p6914
I3976
sS'ince'
p6915
I4042
sS'easly'
p6916
I1625
sS'inch'
p6917
I1923
sS'gets'
p6918
I1031
sS'tomatoes'
p6919
I5301
sS'difficult'
p6920
I3302
sS'succulent'
p6921
I4637
sS'substandard'
p6922
I2522
sS'definately'
p6923
I5084
sS'beast'
p6924
I3737
sS'overcrowded'
p6925
I6142
sS'openoffice'
p6926
I2608
sS'student'
p6927
I2908
sS'purcased'
p6928
I3088
sS'l.a'
p6929
I4298
sS'lobby'
p6930
I4988
sS'warming'
p6931
I6872
sS'arse'
p6932
I2859
sS'usual'
p6933
I1365
sS'antipasti'
p6934
I5496
sS'fighting'
p6935
I1697
sS'english'
p6936
I1480
sS'lightbulb'
p6937
I3100
sS'routinely'
p6938
I5882
sS'percent'
p6939
I5551
sS'camed'
p6940
I1340
sS'batteries'
p6941
I1660
sS'rocked'
p6942
I2160
sS'downfalls'
p6943
I3681
sS'lettuce'
p6944
I6419
sS'bgel'
p6945
I5990
sS'nicky'
p6946
I5321
sS'supply'
p6947
I1156
sS'smith'
p6948
I5245
sS'capabilities'
p6949
I2449
sS'other'
p6950
I68
sS'attractive'
p6951
I2891
sS'usage'
p6952
I3175
sS'unprecedented'
p6953
I2541
sS'identical'
p6954
I1173
sS'smashing'
p6955
I3256
sS'leon'
p6956
I4854
sS'facial'
p6957
I3222
sS'press'
p6958
I2202
sS'hollow'
p6959
I3935
sS'msft'
p6960
I2909
sS'incredibly'
p6961
I631
sS'helpful'
p6962
I593
sS'neighboors'
p6963
I4858
sS'loses'
p6964
I4092
sS'hosts'
p6965
I5387
sS'exceed'
p6966
I1890
sS'because'
p6967
I18
sS'arigato'
p6968
I6270
sS'smoothly'
p6969
I972
sS'scared'
p6970
I5299
sS'searching'
p6971
I3375
sS'leaf'
p6972
I5868
sS'lean'
p6973
I4969
sS'wong'
p6974
I5739
sS'patiently'
p6975
I2883
sS'trout'
p6976
I5699
sS'beverage'
p6977
I4568
sS'says'
p6978
I3273
sS'souffle'
p6979
I5263
sS'pasta'
p6980
I4656
sS'paste'
p6981
I3217
sS'rare'
p6982
I624
sS'carried'
p6983
I3691
sS'extension'
p6984
I2079
sS'getting'
p6985
I331
sS'universe'
p6986
I5822
sS'spilled'
p6987
I1476
sS'varities'
p6988
I5788
sS'shipping'
p6989
I744
sS'perks'
p6990
I4205
sS'swear'
p6991
I2976
sS'sweat'
p6992
I6094
sS'crusted'
p6993
I4248
sS'unpretensious'
p6994
I4351
sS'warranty'
p6995
I447
sS'own'
p6996
I1432
sS'headphone'
p6997
I2934
sS'weather'
p6998
I2965
sS'promise'
p6999
I1866
sS'chams'
p7000
I3086
sS'fired'
p7001
I2283
sS'2.53'
p7002
I3316
sS'2.50'
p7003
I6617
sS'rivals'
p7004
I5949
sS'transfer'
p7005
I2296
sS'*'
p7006
I603
sS'apps'
p7007
I1493
sS'kidding'
p7008
I3732
sS'intention'
p7009
I1664
sS'mozz'
p7010
I5198
sS'shank'
p7011
I6416
sS'megadeth'
p7012
I4219
sS'volume'
p7013
I1068
sS'mailed'
p7014
I2269
sS'larger'
p7015
I2628
sS'squeeze'
p7016
I7048
sS'made'
p7017
I895
sS'tactics'
p7018
I6650
sS'temp'
p7019
I2232
sS'whether'
p7020
I3783
sS'yorkie'
p7021
I5304
sS'distract'
p7022
I5687
sS'record'
p7023
I1998
sS'below'
p7024
I4024
sS'cake'
p7025
I4465
sS'demonstrate'
p7026
I3995
sS'horrific'
p7027
I5155
sS'intimidating'
p7028
I4775
sS'inadequate'
p7029
I3438
sS'overhauled'
p7030
I6187
sS'---'
p7031
I4267
sS'webpages'
p7032
I1821
sS'ew'
p7033
I5915
sS"'ll"
p7034
I680
sS'incredible'
p7035
I286
sS'boot'
p7036
I369
sS'book'
p7037
I1429
sS'g60'
p7038
I4102
sS'smeary'
p7039
I4119
sS'pickels'
p7040
I4646
sS'clicks'
p7041
I2834
sS'contacting'
p7042
I4155
sS'conclusion'
p7043
I5735
sS'junk'
p7044
I1842
sS'kinds'
p7045
I3640
sS'shredded'
p7046
I4553
sS'june'
p7047
I2800
sS'sandwhich'
p7048
I6949
sS'kinda'
p7049
I494
sS'iwork'
p7050
I1183
sS'incurred'
p7051
I1179
sS'upwards'
p7052
I3629
sS'gelato'
p7053
I5996
sS'jewel'
p7054
I6286
sS'occassionaly'
p7055
I3132
sS'kalbi'
p7056
I5450
s.